
zephyr.elf:     file format elf32-xtensa-le


Disassembly of section .iram0.vectors:

40080000 <_WindowOverflow4>:
40080000:	49c500        	s32e	a0, a5, -16
40080003:	49d510        	s32e	a1, a5, -12
40080006:	49e520        	s32e	a2, a5, -8
40080009:	49f530        	s32e	a3, a5, -4
4008000c:	003400        	rfwo
	...

40080040 <_WindowUnderflow4>:
40080040:	09c500        	l32e	a0, a5, -16
40080043:	09d510        	l32e	a1, a5, -12
40080046:	09e520        	l32e	a2, a5, -8
40080049:	09f530        	l32e	a3, a5, -4
4008004c:	003500        	rfwu
	...

40080050 <_xt_alloca_exc>:
40080050:	034800        	rsr.windowbase	a0
40080053:	4080f0        	rotw	-1
40080056:	03e620        	rsr.ps	a2
40080059:	343820        	extui	a3, a2, 8, 4
4008005c:	303340        	xor	a3, a3, a4
4008005f:	03f440        	rsr.misc0	a4
40080062:	113380        	slli	a3, a3, 8
40080065:	302230        	xor	a2, a2, a3
40080068:	13e620        	wsr.ps	a2
4008006b:	002010        	rsync
4008006e:	ce74f7        	bbci	a4, 31, 40080040 <_WindowUnderflow4>
40080071:	4080f0        	rotw	-1
40080074:	4878e7        	bbci	a8, 30, 400800c0 <_WindowUnderflow8>
40080077:	4080f0        	rotw	-1
4008007a:	003086        	j	40080140 <_WindowUnderflow12>
4008007d:	000000        	ill

40080080 <_WindowOverflow8>:
40080080:	49c900        	s32e	a0, a9, -16
40080083:	09d100        	l32e	a0, a1, -12
40080086:	49d910        	s32e	a1, a9, -12
40080089:	49e920        	s32e	a2, a9, -8
4008008c:	49f930        	s32e	a3, a9, -4
4008008f:	498040        	s32e	a4, a0, -32
40080092:	499050        	s32e	a5, a0, -28
40080095:	49a060        	s32e	a6, a0, -24
40080098:	49b070        	s32e	a7, a0, -20
4008009b:	003400        	rfwo
	...

400800c0 <_WindowUnderflow8>:
400800c0:	09c900        	l32e	a0, a9, -16
400800c3:	09d910        	l32e	a1, a9, -12
400800c6:	09e920        	l32e	a2, a9, -8
400800c9:	09d170        	l32e	a7, a1, -12
400800cc:	09f930        	l32e	a3, a9, -4
400800cf:	098740        	l32e	a4, a7, -32
400800d2:	099750        	l32e	a5, a7, -28
400800d5:	09a760        	l32e	a6, a7, -24
400800d8:	09b770        	l32e	a7, a7, -20
400800db:	003500        	rfwu
	...

40080100 <_WindowOverflow12>:
40080100:	49cd00        	s32e	a0, a13, -16
40080103:	09d100        	l32e	a0, a1, -12
40080106:	49dd10        	s32e	a1, a13, -12
40080109:	49ed20        	s32e	a2, a13, -8
4008010c:	49fd30        	s32e	a3, a13, -4
4008010f:	494040        	s32e	a4, a0, -48
40080112:	495050        	s32e	a5, a0, -44
40080115:	496060        	s32e	a6, a0, -40
40080118:	497070        	s32e	a7, a0, -36
4008011b:	498080        	s32e	a8, a0, -32
4008011e:	499090        	s32e	a9, a0, -28
40080121:	49a0a0        	s32e	a10, a0, -24
40080124:	49b0b0        	s32e	a11, a0, -20
40080127:	003400        	rfwo
	...

40080140 <_WindowUnderflow12>:
40080140:	09cd00        	l32e	a0, a13, -16
40080143:	09dd10        	l32e	a1, a13, -12
40080146:	09ed20        	l32e	a2, a13, -8
40080149:	09d1b0        	l32e	a11, a1, -12
4008014c:	09fd30        	l32e	a3, a13, -4
4008014f:	094b40        	l32e	a4, a11, -48
40080152:	095b50        	l32e	a5, a11, -44
40080155:	096b60        	l32e	a6, a11, -40
40080158:	097b70        	l32e	a7, a11, -36
4008015b:	098b80        	l32e	a8, a11, -32
4008015e:	099b90        	l32e	a9, a11, -28
40080161:	09aba0        	l32e	a10, a11, -24
40080164:	09bbb0        	l32e	a11, a11, -20
40080167:	003500        	rfwu
	...

40080180 <_Level2Vector>:
40080180:	bcc112        	addi	a1, a1, -68
40080183:	9109      	s32i.n	a0, a1, 36
40080185:	b129      	s32i.n	a2, a1, 44
40080187:	c139      	s32i.n	a3, a1, 48
40080189:	03c200        	rsr.eps2	a0
4008018c:	7109      	s32i.n	a0, a1, 28
4008018e:	03b200        	rsr.epc2	a0
40080191:	8109      	s32i.n	a0, a1, 32
40080193:	000246        	j	400801a0 <_after_imms2>
	...

40080198 <_handle_excint_imm2>:
40080198:	0809c4        	lsi	f12, a9, 32
4008019b:	40          	.byte 0x40

4008019c <_c_handler_imm2>:
4008019c:	0b18      	l32i.n	a1, a11, 0
4008019e:	4008      	l32i.n	a0, a0, 16

400801a0 <_after_imms2>:
400801a0:	ffff21        	l32r	a2, 4008019c <_c_handler_imm2> (40080b18 <xtensa_int2_c>)
400801a3:	fffd01        	l32r	a0, 40080198 <_handle_excint_imm2> (400809c4 <_handle_excint>)
400801a6:	0000a0        	jx	a0
	...

400801c0 <_Level3Vector>:
400801c0:	bcc112        	addi	a1, a1, -68
400801c3:	9109      	s32i.n	a0, a1, 36
400801c5:	b129      	s32i.n	a2, a1, 44
400801c7:	c139      	s32i.n	a3, a1, 48
400801c9:	03c300        	rsr.eps3	a0
400801cc:	7109      	s32i.n	a0, a1, 28
400801ce:	03b300        	rsr.epc3	a0
400801d1:	8109      	s32i.n	a0, a1, 32
400801d3:	000146        	j	400801dc <_after_imms3>
	...

400801d8 <_c_handler_imm3>:
400801d8:	080b74        	lsi	f7, a11, 32
400801db:	40          	.byte 0x40

400801dc <_after_imms3>:
400801dc:	ffff21        	l32r	a2, 400801d8 <_c_handler_imm3> (40080b74 <xtensa_int3_c>)
400801df:	ffee01        	l32r	a0, 40080198 <_handle_excint_imm2> (400809c4 <_handle_excint>)
400801e2:	0000a0        	jx	a0
	...

40080200 <_Level4Vector>:
40080200:	bcc112        	addi	a1, a1, -68
40080203:	9109      	s32i.n	a0, a1, 36
40080205:	b129      	s32i.n	a2, a1, 44
40080207:	c139      	s32i.n	a3, a1, 48
40080209:	03c400        	rsr.eps4	a0
4008020c:	7109      	s32i.n	a0, a1, 28
4008020e:	03b400        	rsr.epc4	a0
40080211:	8109      	s32i.n	a0, a1, 32
40080213:	000146        	j	4008021c <_after_imms4>
	...

40080218 <_c_handler_imm4>:
40080218:	0bf8      	l32i.n	a15, a11, 0
4008021a:	4008      	l32i.n	a0, a0, 16

4008021c <_after_imms4>:
4008021c:	ffff21        	l32r	a2, 40080218 <_c_handler_imm4> (40080bf8 <xtensa_int4_c>)
4008021f:	ffde01        	l32r	a0, 40080198 <_handle_excint_imm2> (400809c4 <_handle_excint>)
40080222:	0000a0        	jx	a0
	...

40080240 <_Level5Vector>:
40080240:	bcc112        	addi	a1, a1, -68
40080243:	9109      	s32i.n	a0, a1, 36
40080245:	b129      	s32i.n	a2, a1, 44
40080247:	c139      	s32i.n	a3, a1, 48
40080249:	03c500        	rsr.eps5	a0
4008024c:	7109      	s32i.n	a0, a1, 28
4008024e:	03b500        	rsr.epc5	a0
40080251:	8109      	s32i.n	a0, a1, 32
40080253:	000146        	j	4008025c <_after_imms5>
	...

40080258 <_c_handler_imm5>:
40080258:	080c64        	lsi	f6, a12, 32
4008025b:	40          	.byte 0x40

4008025c <_after_imms5>:
4008025c:	ffff21        	l32r	a2, 40080258 <_c_handler_imm5> (40080c64 <xtensa_int5_c>)
4008025f:	ffce01        	l32r	a0, 40080198 <_handle_excint_imm2> (400809c4 <_handle_excint>)
40080262:	0000a0        	jx	a0
	...

40080280 <_Level6Vector>:
40080280:	bcc112        	addi	a1, a1, -68
40080283:	9109      	s32i.n	a0, a1, 36
40080285:	b129      	s32i.n	a2, a1, 44
40080287:	c139      	s32i.n	a3, a1, 48
40080289:	03c600        	rsr.eps6	a0
4008028c:	7109      	s32i.n	a0, a1, 28
4008028e:	03b600        	rsr.epc6	a0
40080291:	8109      	s32i.n	a0, a1, 32
40080293:	000146        	j	4008029c <_after_imms6>
	...

40080298 <_c_handler_imm6>:
40080298:	080cc4        	lsi	f12, a12, 32
4008029b:	40          	.byte 0x40

4008029c <_after_imms6>:
4008029c:	ffff21        	l32r	a2, 40080298 <_c_handler_imm6> (40080cc4 <xtensa_int6_c>)
4008029f:	ffbe01        	l32r	a0, 40080198 <_handle_excint_imm2> (400809c4 <_handle_excint>)
400802a2:	0000a0        	jx	a0
	...

400802c0 <_Level7Vector>:
400802c0:	bcc112        	addi	a1, a1, -68
400802c3:	9109      	s32i.n	a0, a1, 36
400802c5:	b129      	s32i.n	a2, a1, 44
400802c7:	c139      	s32i.n	a3, a1, 48
400802c9:	03c700        	rsr.eps7	a0
400802cc:	7109      	s32i.n	a0, a1, 28
400802ce:	03b700        	rsr.epc7	a0
400802d1:	8109      	s32i.n	a0, a1, 32
400802d3:	000146        	j	400802dc <_after_imms7>
	...

400802d8 <_c_handler_imm7>:
400802d8:	0cdc      	bnez.n	a12, 400802ec <_after_imms7+0x10>
400802da:	4008      	l32i.n	a0, a0, 16

400802dc <_after_imms7>:
400802dc:	ffff21        	l32r	a2, 400802d8 <_c_handler_imm7> (40080cdc <xtensa_int7_c>)
400802df:	ffae01        	l32r	a0, 40080198 <_handle_excint_imm2> (400809c4 <_handle_excint>)
400802e2:	0000a0        	jx	a0
	...

40080300 <_KernelExceptionVector>:
40080300:	014606        	j	4008081c <_Level1Vector>
	...

40080340 <_Level1RealVector>:
40080340:	13f400        	wsr.misc0	a0
40080343:	03e800        	rsr.exccause	a0
40080346:	025066        	bnei	a0, 5, 4008034c <_not_alloca>
40080349:	ff40c6        	j	40080050 <_xt_alloca_exc>

4008034c <_not_alloca>:
4008034c:	03f400        	rsr.misc0	a0
4008034f:	013246        	j	4008081c <_Level1Vector>
	...

400803c0 <_DoubleExceptionVector>:
400803c0:	004140        	break	1, 4
400803c3:	fffe46        	j	400803c0 <_DoubleExceptionVector>
	...

Disassembly of section text:

40080400 <__esp_platform_start-0x168>:
40080400:	40080000 	
40080404:	00040023 	
40080408:	3ffb15ac 	
4008040c:	3ff48000 	
40080410:	40009200 	
40080414:	3ffe01e0 	
40080418:	000f4240 	
4008041c:	04c4b400 	
40080420:	3ffb146c 	
40080424:	400041a4 	
40080428:	bff30000 	
4008042c:	0032ffff 	
40080430:	bff88000 	
40080434:	00027fff 	
40080438:	00064eff 	
4008043c:	bff40000 	
40080440:	00001fff 	
40080444:	4000681c 	
40080448:	3f400e70 	
4008044c:	3f400e5c 	
40080450:	400809c0 	
40080454:	400d037c 	
40080458:	00050020 	
4008045c:	3ffb0184 	
40080460:	00408800 	
40080464:	4008095b 	
40080468:	01010020 	
4008046c:	3fffffff 	
40080470:	3ffb1474 	
40080474:	3ffb1478 	
40080478:	c0051ff0 	
4008047c:	00051fe0 	
40080480:	3ffb0040 	
40080484:	3ffb004f 	
40080488:	3ffb005e 	
4008048c:	3ffb006c 	
40080490:	3ffb007a 	
40080494:	0e4e1c00 	
40080498:	4000cff8 	
4008049c:	3ffb0080 	
400804a0:	3ffb15fc 	
400804a4:	3ffb13f0 	
400804a8:	3ffb1600 	
400804ac:	3ffb02e8 	
400804b0:	3ffb1398 	
400804b4:	40081368 	
400804b8:	3ffe6230 	
400804bc:	3ffe5a30 	
400804c0:	3ffb15a8 	
400804c4:	40081084 	
400804c8:	3ffe6630 	
400804cc:	3ffb0098 	
400804d0:	3ffb0290 	
400804d4:	3ffb02b8 	
400804d8:	3f400eac 	
400804dc:	3f400f04 	
400804e0:	40081718 	
400804e4:	3ffb15d0 	
400804e8:	3ffb15cc 	
400804ec:	3ffb15fd 	
400804f0:	3ffb1448 	
400804f4:	aaaaaaab 	
400804f8:	400813bc 	
400804fc:	3ffb15fe 	
40080500:	3ffb15c4 	
40080504:	3ffb15d4 	
40080508:	7fffffff 	
4008050c:	3ffb0038 	
40080510:	3ffb1460 	
40080514:	3ffb02a4 	
40080518:	3f400d20 	
4008051c:	fffbfff0 	
40080520:	4000855c 	
40080524:	3ffb15a4 	
40080528:	057619f1 	
4008052c:	0002bb0b 	
40080530:	00005dbf 	
40080534:	4000d280 	
40080538:	3ffb0118 	
4008053c:	3ffb011d 	
40080540:	ffff87ff 	
40080544:	ffff87fd 	
40080548:	00004002 	
4008054c:	00000801 	
40080550:	00004000 	
40080554:	3ffb00a0 	
40080558:	3ffb00f8 	
4008055c:	3ffb0000 	
40080560:	40082b80 	
40080564:	3f400e98 	

40080568 <__esp_platform_start>:
40080568:	006136        	entry	a1, 48
4008056b:	ffa581        	l32r	a8, 40080400 <_init_end> (40080000 <_WindowOverflow4>)
4008056e:	13e780        	wsr.vecbase	a8
40080571:	00b525        	call8	400810c4 <z_bss_zero>
40080574:	ffa481        	l32r	a8, 40080404 <_init_end+0x4> (40023 <CONFIG_ESP_HEAP_MEM_POOL_REGION_1_SIZE+0x34023>)
40080577:	13e680        	wsr.ps	a8
4008057a:	ffa381        	l32r	a8, 40080408 <_init_end+0x8> (3ffb15ac <_kernel>)
4008057d:	13f480        	wsr.misc0	a8
40080580:	002010        	rsync
40080583:	080c      	movi.n	a8, 0
40080585:	0189      	s32i.n	a8, a1, 0
40080587:	ffa181        	l32r	a8, 4008040c <_init_end+0xc> (3ff48000 <RTCCNTL>)
4008058a:	01ad      	mov.n	a10, a1
4008058c:	016182        	s32i	a8, a1, 4
4008058f:	519b25        	call8	400d1f40 <wdt_hal_write_protect_disable>
40080592:	01ad      	mov.n	a10, a1
40080594:	519ca5        	call8	400d1f60 <wdt_hal_disable>
40080597:	01ad      	mov.n	a10, a1
40080599:	530225        	call8	400d35bc <wdt_hal_write_protect_enable>
4008059c:	5068e5        	call8	400d0c2c <esp_clk_init>
4008059f:	5170e5        	call8	400d1cac <esp_timer_early_init>
400805a2:	51c525        	call8	400d21f4 <esp_intr_initialize>
400805a5:	00b9e5        	call8	40081144 <z_cstart>

400805a8 <arch_printk_char_out>:
400805a8:	004136        	entry	a1, 32
400805ab:	079266        	bnei	a2, 10, 400805b6 <arch_printk_char_out+0xe>
400805ae:	da0c      	movi.n	a10, 13
400805b0:	ff9881        	l32r	a8, 40080410 <_init_end+0x10> (40009200 <esp_rom_uart_tx_one_char>)
400805b3:	0008e0        	callx8	a8
400805b6:	74a020        	extui	a10, a2, 0, 8
400805b9:	ff9581        	l32r	a8, 40080410 <_init_end+0x10> (40009200 <esp_rom_uart_tx_one_char>)
400805bc:	0008e0        	callx8	a8
400805bf:	020c      	movi.n	a2, 0
400805c1:	f01d      	retw.n
	...

400805c4 <esp_clk_cpu_freq>:
400805c4:	004136        	entry	a1, 32
400805c7:	ff9321        	l32r	a2, 40080414 <_init_end+0x14> (3ffe01e0 <g_ticks_per_us_pro>)
400805ca:	ff9381        	l32r	a8, 40080418 <_init_end+0x18> (f4240 <CONFIG_ESP_HEAP_MEM_POOL_REGION_1_SIZE+0xe8240>)
400805cd:	0228      	l32i.n	a2, a2, 0
400805cf:	822280        	mull	a2, a2, a8
400805d2:	f01d      	retw.n

400805d4 <esp_clk_apb_freq>:
400805d4:	004136        	entry	a1, 32
400805d7:	ff8f21        	l32r	a2, 40080414 <_init_end+0x14> (3ffe01e0 <g_ticks_per_us_pro>)
400805da:	f94c      	movi.n	a9, 79
400805dc:	0288      	l32i.n	a8, a2, 0
400805de:	ff8f21        	l32r	a2, 4008041c <_init_end+0x1c> (4c4b400 <CONFIG_FLASH_SIZE+0x484b400>)
400805e1:	052987        	blt	a9, a8, 400805ea <esp_clk_apb_freq+0x16>
400805e4:	ff8d21        	l32r	a2, 40080418 <_init_end+0x18> (f4240 <CONFIG_ESP_HEAP_MEM_POOL_REGION_1_SIZE+0xe8240>)
400805e7:	822820        	mull	a2, a8, a2
400805ea:	f01d      	retw.n

400805ec <ets_update_cpu_frequency>:
400805ec:	004136        	entry	a1, 32
400805ef:	ff8981        	l32r	a8, 40080414 <_init_end+0x14> (3ffe01e0 <g_ticks_per_us_pro>)
400805f2:	0829      	s32i.n	a2, a8, 0
400805f4:	f01d      	retw.n
	...

400805f8 <regi2c_ctrl_write_reg>:
400805f8:	004136        	entry	a1, 32
400805fb:	74a020        	extui	a10, a2, 0, 8
400805fe:	74b030        	extui	a11, a3, 0, 8
40080601:	74c040        	extui	a12, a4, 0, 8
40080604:	74d050        	extui	a13, a5, 0, 8
40080607:	006380        	rsil	a8, 3
4008060a:	ff8561        	l32r	a6, 40080420 <_init_end+0x20> (3ffb146c <mux>)
4008060d:	0689      	s32i.n	a8, a6, 0
4008060f:	ff8581        	l32r	a8, 40080424 <_init_end+0x24> (400041a4 <rom_i2c_writeReg>)
40080612:	0008e0        	callx8	a8
40080615:	0668      	l32i.n	a6, a6, 0
40080617:	13e660        	wsr.ps	a6
4008061a:	002010        	rsync
4008061d:	f01d      	retw.n
	...

40080620 <esp_ptr_executable>:
40080620:	004136        	entry	a1, 32
40080623:	ff8181        	l32r	a8, 40080428 <_init_end+0x28> (bff30000 <_rtc_bss_end+0x6ff30000>)
40080626:	ff8191        	l32r	a9, 4008042c <_init_end+0x2c> (32ffff <CONFIG_ESP_HEAP_MEM_POOL_REGION_1_SIZE+0x323fff>)
40080629:	828a      	add.n	a8, a2, a8
4008062b:	2bb987        	bgeu	a9, a8, 4008065a <esp_ptr_executable+0x3a>
4008062e:	ff8081        	l32r	a8, 40080430 <_init_end+0x30> (bff88000 <_rtc_bss_end+0x6ff88000>)
40080631:	ff8091        	l32r	a9, 40080434 <_init_end+0x34> (27fff <CONFIG_ESP_HEAP_MEM_POOL_REGION_1_SIZE+0x1bfff>)
40080634:	828a      	add.n	a8, a2, a8
40080636:	20b987        	bgeu	a9, a8, 4008065a <esp_ptr_executable+0x3a>
40080639:	f87c      	movi.n	a8, -1
4008063b:	018820        	slli	a8, a8, 30
4008063e:	ff7ea1        	l32r	a10, 40080438 <_init_end+0x38> (64eff <CONFIG_ESP_HEAP_MEM_POOL_REGION_1_SIZE+0x58eff>)
40080641:	928a      	add.n	a9, a2, a8
40080643:	180c      	movi.n	a8, 1
40080645:	13ba97        	bgeu	a10, a9, 4008065c <esp_ptr_executable+0x3c>
40080648:	ff7d91        	l32r	a9, 4008043c <_init_end+0x3c> (bff40000 <_rtc_bss_end+0x6ff40000>)
4008064b:	229a      	add.n	a2, a2, a9
4008064d:	ff7c91        	l32r	a9, 40080440 <_init_end+0x40> (1fff <_image_iram_start+0xe13>)
40080650:	08b927        	bgeu	a9, a2, 4008065c <esp_ptr_executable+0x3c>
40080653:	080c      	movi.n	a8, 0
40080655:	0000c6        	j	4008065c <esp_ptr_executable+0x3c>
40080658:	00          	.byte 00
40080659:	00          	.byte 00
4008065a:	180c      	movi.n	a8, 1
4008065c:	042080        	extui	a2, a8, 0, 1
4008065f:	f01d      	retw.n
40080661:	000000        	ill

40080664 <z_xtensa_backtrace_get_start>:
40080664:	004136        	entry	a1, 32
40080667:	019825        	call8	40081fe8 <xthal_window_spill>
4008066a:	002562        	l32i	a6, a5, 0
4008066d:	082672        	l32i	a7, a6, 32
40080670:	006272        	s32i	a7, a2, 0
40080673:	9678      	l32i.n	a7, a6, 36
40080675:	0479      	s32i.n	a7, a4, 0
40080677:	44c662        	addi	a6, a6, 68
4008067a:	0369      	s32i.n	a6, a3, 0
4008067c:	f01d      	retw.n
	...

40080680 <shared_intr_isr>:
40080680:	004136        	entry	a1, 32
40080683:	1228      	l32i.n	a2, a2, 4
40080685:	519c25        	call8	400d2048 <esp_intr_lock>
40080688:	0007c6        	j	400806ab <shared_intr_isr+0x2b>
4008068b:	00          	.byte 00
4008068c:	001282        	l16ui	a8, a2, 0
4008068f:	16e807        	bbsi	a8, 0, 400806a9 <shared_intr_isr+0x29>
40080692:	1288      	l32i.n	a8, a2, 4
40080694:	a88c      	beqz.n	a8, 400806a2 <shared_intr_isr+0x22>
40080696:	0020c0        	memw
40080699:	002892        	l32i	a9, a8, 0
4008069c:	022282        	l32i	a8, a2, 8
4008069f:	060987        	bnone	a9, a8, 400806a9 <shared_intr_isr+0x29>
400806a2:	3288      	l32i.n	a8, a2, 12
400806a4:	42a8      	l32i.n	a10, a2, 16
400806a6:	0008e0        	callx8	a8
400806a9:	5228      	l32i.n	a2, a2, 20
400806ab:	fdd256        	bnez	a2, 4008068c <shared_intr_isr+0xc>
400806ae:	519aa5        	call8	400d2058 <esp_intr_unlock>
400806b1:	f01d      	retw.n
	...

400806b4 <esp_intr_disable>:
400806b4:	004136        	entry	a1, 32
400806b7:	073216        	beqz	a2, 4008072e <esp_intr_disable+0x7a>
400806ba:	5198e5        	call8	400d2048 <esp_intr_lock>
400806bd:	012282        	l32i	a8, a2, 4
400806c0:	035816        	beqz	a8, 400806f9 <esp_intr_disable+0x45>
400806c3:	001892        	l16ui	a9, a8, 0
400806c6:	01a0a2        	movi	a10, 1
400806c9:	2099a0        	or	a9, a9, a10
400806cc:	005892        	s16i	a9, a8, 0
400806cf:	1288      	l32i.n	a8, a2, 4
400806d1:	08b8      	l32i.n	a11, a8, 0
400806d3:	0288      	l32i.n	a8, a2, 0
400806d5:	74b1b0        	extui	a11, a11, 1, 8
400806d8:	1888      	l32i.n	a8, a8, 4
400806da:	23bb00        	sext	a11, a11, 7
400806dd:	000486        	j	400806f3 <esp_intr_disable+0x3f>
400806e0:	0898      	l32i.n	a9, a8, 0
400806e2:	019990        	slli	a9, a9, 23
400806e5:	319890        	srai	a9, a9, 24
400806e8:	0599b7        	bne	a9, a11, 400806f1 <esp_intr_disable+0x3d>
400806eb:	001892        	l16ui	a9, a8, 0
400806ee:	5e6907        	bbci	a9, 0, 40080750 <esp_intr_disable+0x9c>
400806f1:	5888      	l32i.n	a8, a8, 20
400806f3:	fe9856        	bnez	a8, 400806e0 <esp_intr_disable+0x2c>
400806f6:	001706        	j	40080756 <esp_intr_disable+0xa2>
400806f9:	0288      	l32i.n	a8, a2, 0
400806fb:	0888      	l32i.n	a8, a8, 0
400806fd:	1188e0        	slli	a8, a8, 2
40080700:	31b880        	srai	a11, a8, 24
40080703:	011896        	bltz	a8, 40080718 <esp_intr_disable+0x64>
40080706:	0228      	l32i.n	a2, a2, 0
40080708:	6c0c      	movi.n	a12, 6
4008070a:	02a8      	l32i.n	a10, a2, 0
4008070c:	05a0a0        	extui	a10, a10, 16, 1
4008070f:	ff4d81        	l32r	a8, 40080444 <_init_end+0x44> (4000681c <intr_matrix_set>)
40080712:	0008e0        	callx8	a8
40080715:	000b06        	j	40080745 <esp_intr_disable+0x91>
40080718:	0288      	l32i.n	a8, a2, 0
4008071a:	03eb20        	rsr.prid	a2
4008071d:	042d20        	extui	a2, a2, 13, 1
40080720:	08a8      	l32i.n	a10, a8, 0
40080722:	0580a0        	extui	a8, a10, 16, 1
40080725:	0b1827        	beq	a8, a2, 40080734 <esp_intr_disable+0x80>
40080728:	201110        	or	a1, a1, a1
4008072b:	5192e5        	call8	400d2058 <esp_intr_unlock>
4008072e:	a26c      	movi.n	a2, -22
40080730:	000a06        	j	4008075c <esp_intr_disable+0xa8>
40080733:	00          	.byte 00
40080734:	45a1a0        	extui	a10, a10, 17, 5
40080737:	120c      	movi.n	a2, 1
40080739:	401a00        	ssl	a10
4008073c:	a1a200        	sll	a10, a2
4008073f:	201110        	or	a1, a1, a1
40080742:	52eca5        	call8	400d360c <z_xt_ints_off>
40080745:	519125        	call8	400d2058 <esp_intr_unlock>
40080748:	020c      	movi.n	a2, 0
4008074a:	000386        	j	4008075c <esp_intr_disable+0xa8>
4008074d:	00          	.byte 00
4008074e:	00          	.byte 00
4008074f:	00          	.byte 00
40080750:	ff1bd6        	bgez	a11, 40080745 <esp_intr_disable+0x91>
40080753:	fff046        	j	40080718 <esp_intr_disable+0x64>
40080756:	fbeb96        	bltz	a11, 40080718 <esp_intr_disable+0x64>
40080759:	ffea46        	j	40080706 <esp_intr_disable+0x52>
4008075c:	f01d      	retw.n
	...

40080760 <gpio_esp32_isr>:
40080760:	004136        	entry	a1, 32
40080763:	ff39a1        	l32r	a10, 40080448 <_init_end+0x48> (3f400e70 <__device_dts_ord_11>)
40080766:	0000e5        	call8	40080774 <gpio_esp32_fire_callbacks>
40080769:	ff38a1        	l32r	a10, 4008044c <_init_end+0x4c> (3f400e5c <__device_dts_ord_74>)
4008076c:	000065        	call8	40080774 <gpio_esp32_fire_callbacks>
4008076f:	f01d      	retw.n
40080771:	000000        	ill

40080774 <gpio_esp32_fire_callbacks>:
40080774:	006136        	entry	a1, 48
40080777:	1248      	l32i.n	a4, a2, 4
40080779:	4258      	l32i.n	a5, a2, 16
4008077b:	03f530        	rsr.misc1	a3
4008077e:	1488      	l32i.n	a8, a4, 4
40080780:	3448      	l32i.n	a4, a4, 12
40080782:	100332        	l8ui	a3, a3, 16
40080785:	b4dc      	bnez.n	a4, 400807a4 <gpio_esp32_fire_callbacks+0x30>
40080787:	93cc      	bnez.n	a3, 40080794 <gpio_esp32_fire_callbacks+0x20>
40080789:	0020c0        	memw
4008078c:	1a2832        	l32i	a3, a8, 104
4008078f:	0001c6        	j	4008079a <gpio_esp32_fire_callbacks+0x26>
40080792:	00          	.byte 00
40080793:	00          	.byte 00
40080794:	0020c0        	memw
40080797:	182832        	l32i	a3, a8, 96
4008079a:	0020c0        	memw
4008079d:	136832        	s32i	a3, a8, 76
400807a0:	0012c6        	j	400807ef <gpio_esp32_fire_callbacks+0x7b>
400807a3:	00          	.byte 00
400807a4:	43dc      	bnez.n	a3, 400807bc <gpio_esp32_fire_callbacks+0x48>
400807a6:	0020c0        	memw
400807a9:	1f2832        	l32i	a3, a8, 124
400807ac:	0020c0        	memw
400807af:	1139      	s32i.n	a3, a1, 4
400807b1:	0020c0        	memw
400807b4:	040132        	l8ui	a3, a1, 4
400807b7:	000486        	j	400807cd <gpio_esp32_fire_callbacks+0x59>
400807ba:	00          	.byte 00
400807bb:	00          	.byte 00
400807bc:	0020c0        	memw
400807bf:	1d2832        	l32i	a3, a8, 116
400807c2:	0020c0        	memw
400807c5:	0139      	s32i.n	a3, a1, 0
400807c7:	0020c0        	memw
400807ca:	000132        	l8ui	a3, a1, 0
400807cd:	0020c0        	memw
400807d0:	162842        	l32i	a4, a8, 88
400807d3:	743030        	extui	a3, a3, 0, 8
400807d6:	0020c0        	memw
400807d9:	2149      	s32i.n	a4, a1, 8
400807db:	744030        	extui	a4, a3, 0, 8
400807de:	0020c0        	memw
400807e1:	084142        	s8i	a4, a1, 8
400807e4:	0020c0        	memw
400807e7:	2148      	l32i.n	a4, a1, 8
400807e9:	0020c0        	memw
400807ec:	166842        	s32i	a4, a8, 88
400807ef:	53ac      	beqz.n	a3, 40080818 <gpio_esp32_fire_callbacks+0xa4>
400807f1:	15b8      	l32i.n	a11, a5, 4
400807f3:	1bac      	beqz.n	a11, 40080818 <gpio_esp32_fire_callbacks+0xa4>
400807f5:	0b48      	l32i.n	a4, a11, 0
400807f7:	050c      	movi.n	a5, 0
400807f9:	000606        	j	40080815 <gpio_esp32_fire_callbacks+0xa1>
400807fc:	2bc8      	l32i.n	a12, a11, 8
400807fe:	10c3c0        	and	a12, a3, a12
40080801:	5c8c      	beqz.n	a12, 4008080a <gpio_esp32_fire_callbacks+0x96>
40080803:	1b88      	l32i.n	a8, a11, 4
40080805:	02ad      	mov.n	a10, a2
40080807:	0008e0        	callx8	a8
4008080a:	058d      	mov.n	a8, a5
4008080c:	148c      	beqz.n	a4, 40080811 <gpio_esp32_fire_callbacks+0x9d>
4008080e:	002482        	l32i	a8, a4, 0
40080811:	04bd      	mov.n	a11, a4
40080813:	084d      	mov.n	a4, a8
40080815:	fe3b56        	bnez	a11, 400807fc <gpio_esp32_fire_callbacks+0x88>
40080818:	f01d      	retw.n
	...

4008081c <_Level1Vector>:
4008081c:	bcc112        	addi	a1, a1, -68
4008081f:	9109      	s32i.n	a0, a1, 36
40080821:	b129      	s32i.n	a2, a1, 44
40080823:	c139      	s32i.n	a3, a1, 48
40080825:	03e600        	rsr.ps	a0
40080828:	026c      	movi.n	a2, -32
4008082a:	100020        	and	a0, a0, a2
4008082d:	7109      	s32i.n	a0, a1, 28
4008082f:	03b100        	rsr.epc1	a0
40080832:	8109      	s32i.n	a0, a1, 32
40080834:	000206        	j	40080840 <_after_imms1>
	...

40080838 <_handle_excint_imm1>:
40080838:	0809c4        	lsi	f12, a9, 32
4008083b:	40          	.byte 0x40

4008083c <_c_handler_imm1>:
4008083c:	080d14        	lsi	f1, a13, 32
4008083f:	40          	.byte 0x40

40080840 <_after_imms1>:
40080840:	ffff21        	l32r	a2, 4008083c <_c_handler_imm1> (40080d14 <xtensa_excint1_c>)
40080843:	fffd01        	l32r	a0, 40080838 <_handle_excint_imm1> (400809c4 <_handle_excint>)
40080846:	0000a0        	jx	a0
40080849:	000000        	ill

4008084c <arch_cpu_idle>:
4008084c:	004136        	entry	a1, 32
4008084f:	017d      	mov.n	a7, a1
40080851:	52b7a5        	call8	400d33cc <sys_trace_idle>
40080854:	007000        	waiti	0
40080857:	f01d      	retw.n
40080859:	000000        	ill

4008085c <z_xtensa_fatal_error>:
4008085c:	004136        	entry	a1, 32
4008085f:	016316        	beqz	a3, 40080879 <z_xtensa_fatal_error+0x1d>
40080862:	006340        	rsil	a4, 3
40080865:	20a330        	or	a10, a3, a3
40080868:	007725        	call8	40080fdc <z_xtensa_dump_stack>
4008086b:	03bd      	mov.n	a11, a3
4008086d:	64a0a2        	movi	a10, 100
40080870:	006925        	call8	40080f04 <z_xtensa_backtrace_print>
40080873:	13e640        	wsr.ps	a4
40080876:	002010        	rsync
40080879:	03bd      	mov.n	a11, a3
4008087b:	02ad      	mov.n	a10, a2
4008087d:	0079a5        	call8	40081018 <z_fatal_error>
40080880:	f01d      	retw.n
	...

40080884 <xtensa_spill_reg_windows>:
40080884:	10ccc0        	and	a12, a12, a12
40080887:	408030        	rotw	3
4008088a:	10ccc0        	and	a12, a12, a12
4008088d:	408030        	rotw	3
40080890:	10ccc0        	and	a12, a12, a12
40080893:	408030        	rotw	3
40080896:	10ccc0        	and	a12, a12, a12
40080899:	408030        	rotw	3
4008089c:	10ccc0        	and	a12, a12, a12
4008089f:	408040        	rotw	4
400808a2:	f00d      	ret.n

400808a4 <xtensa_save_high_regs>:
400808a4:	034920        	rsr.windowstart	a2
400808a7:	113200        	slli	a3, a2, 16
400808aa:	202230        	or	a2, a2, a3
400808ad:	034830        	rsr.windowbase	a3
400808b0:	400300        	ssr	a3
400808b3:	912020        	srl	a2, a2
400808b6:	013d      	mov.n	a3, a1
400808b8:	28e217        	bbsi	a2, 1, 400808e4 <_high_gpr_spill_done>
400808bb:	f0c112        	addi	a1, a1, -16
400808be:	0149      	s32i.n	a4, a1, 0
400808c0:	1159      	s32i.n	a5, a1, 4
400808c2:	2169      	s32i.n	a6, a1, 8
400808c4:	3179      	s32i.n	a7, a1, 12
400808c6:	1ae227        	bbsi	a2, 2, 400808e4 <_high_gpr_spill_done>
400808c9:	f0c112        	addi	a1, a1, -16
400808cc:	0189      	s32i.n	a8, a1, 0
400808ce:	1199      	s32i.n	a9, a1, 4
400808d0:	21a9      	s32i.n	a10, a1, 8
400808d2:	31b9      	s32i.n	a11, a1, 12
400808d4:	0ce237        	bbsi	a2, 3, 400808e4 <_high_gpr_spill_done>
400808d7:	f0c112        	addi	a1, a1, -16
400808da:	01c9      	s32i.n	a12, a1, 0
400808dc:	11d9      	s32i.n	a13, a1, 4
400808de:	0261e2        	s32i	a14, a1, 8
400808e1:	0361f2        	s32i	a15, a1, 12

400808e4 <_high_gpr_spill_done>:
400808e4:	fcc112        	addi	a1, a1, -4
400808e7:	0139      	s32i.n	a3, a1, 0
400808e9:	f00d      	ret.n
	...

400808ec <xtensa_restore_high_regs>:
400808ec:	0128      	l32i.n	a2, a1, 0
400808ee:	114b      	addi.n	a1, a1, 4
400808f0:	023d      	mov.n	a3, a2
400808f2:	261127        	beq	a1, a2, 4008091c <_high_restore_done>
400808f5:	f0c222        	addi	a2, a2, -16
400808f8:	0248      	l32i.n	a4, a2, 0
400808fa:	1258      	l32i.n	a5, a2, 4
400808fc:	2268      	l32i.n	a6, a2, 8
400808fe:	3278      	l32i.n	a7, a2, 12
40080900:	181127        	beq	a1, a2, 4008091c <_high_restore_done>
40080903:	f0c222        	addi	a2, a2, -16
40080906:	0288      	l32i.n	a8, a2, 0
40080908:	1298      	l32i.n	a9, a2, 4
4008090a:	22a8      	l32i.n	a10, a2, 8
4008090c:	32b8      	l32i.n	a11, a2, 12
4008090e:	0a1127        	beq	a1, a2, 4008091c <_high_restore_done>
40080911:	f0c222        	addi	a2, a2, -16
40080914:	02c8      	l32i.n	a12, a2, 0
40080916:	12d8      	l32i.n	a13, a2, 4
40080918:	22e8      	l32i.n	a14, a2, 8
4008091a:	32f8      	l32i.n	a15, a2, 12

4008091c <_high_restore_done>:
4008091c:	031d      	mov.n	a1, a3
4008091e:	f00d      	ret.n
	...

40080921 <_restore_context>:
40080921:	fffc85        	call0	400808ec <xtensa_restore_high_regs>
40080924:	8108      	l32i.n	a0, a1, 32
40080926:	13b500        	wsr.epc5	a0
40080929:	7108      	l32i.n	a0, a1, 28
4008092b:	13c500        	wsr.eps5	a0
4008092e:	6108      	l32i.n	a0, a1, 24
40080930:	130300        	wsr.sar	a0
40080933:	5108      	l32i.n	a0, a1, 20
40080935:	130000        	wsr.lbeg	a0
40080938:	4108      	l32i.n	a0, a1, 16
4008093a:	130100        	wsr.lend	a0
4008093d:	3108      	l32i.n	a0, a1, 12
4008093f:	130200        	wsr.lcount	a0
40080942:	1108      	l32i.n	a0, a1, 4
40080944:	130c00        	wsr.scompare1	a0
40080947:	002010        	rsync
4008094a:	9108      	l32i.n	a0, a1, 36
4008094c:	b128      	l32i.n	a2, a1, 44
4008094e:	c138      	l32i.n	a3, a1, 48
40080950:	44c112        	addi	a1, a1, 68
40080953:	003510        	rfi	5
	...

40080958 <xtensa_arch_except>:
40080958:	002136        	entry	a1, 16

4008095b <xtensa_arch_except_epc>:
4008095b:	000000        	ill
4008095e:	f01d      	retw.n

40080960 <xtensa_switch>:
40080960:	002136        	entry	a1, 16
40080963:	10ccc0        	and	a12, a12, a12
40080966:	408030        	rotw	3
40080969:	10ccc0        	and	a12, a12, a12
4008096c:	408030        	rotw	3
4008096f:	10ccc0        	and	a12, a12, a12
40080972:	408030        	rotw	3
40080975:	10ccc0        	and	a12, a12, a12
40080978:	408030        	rotw	3
4008097b:	10ccc0        	and	a12, a12, a12
4008097e:	408040        	rotw	4
40080981:	bcc112        	addi	a1, a1, -68
40080984:	9109      	s32i.n	a0, a1, 36
40080986:	b129      	s32i.n	a2, a1, 44
40080988:	c139      	s32i.n	a3, a1, 48
4008098a:	030300        	rsr.sar	a0
4008098d:	6109      	s32i.n	a0, a1, 24
4008098f:	030000        	rsr.lbeg	a0
40080992:	5109      	s32i.n	a0, a1, 20
40080994:	030100        	rsr.lend	a0
40080997:	4109      	s32i.n	a0, a1, 16
40080999:	030200        	rsr.lcount	a0
4008099c:	3109      	s32i.n	a0, a1, 12
4008099e:	03e800        	rsr.exccause	a0
400809a1:	2109      	s32i.n	a0, a1, 8
400809a3:	030c00        	rsr.scompare1	a0
400809a6:	1109      	s32i.n	a0, a1, 4
400809a8:	03e600        	rsr.ps	a0
400809ab:	7109      	s32i.n	a0, a1, 28
400809ad:	fea801        	l32r	a0, 40080450 <_init_end+0x50> (400809c0 <_switch_restore_pc>)
400809b0:	8109      	s32i.n	a0, a1, 32
400809b2:	ffef05        	call0	400808a4 <xtensa_save_high_regs>
400809b5:	0128      	l32i.n	a2, a1, 0
400809b7:	c238      	l32i.n	a3, a2, 48
400809b9:	0319      	s32i.n	a1, a3, 0
400809bb:	b218      	l32i.n	a1, a2, 44
400809bd:	ffd806        	j	40080921 <_restore_context>

400809c0 <_switch_restore_pc>:
400809c0:	f01d      	retw.n
	...

400809c4 <_handle_excint>:
400809c4:	a129      	s32i.n	a2, a1, 40
400809c6:	030300        	rsr.sar	a0
400809c9:	6109      	s32i.n	a0, a1, 24
400809cb:	030000        	rsr.lbeg	a0
400809ce:	5109      	s32i.n	a0, a1, 20
400809d0:	030100        	rsr.lend	a0
400809d3:	4109      	s32i.n	a0, a1, 16
400809d5:	030200        	rsr.lcount	a0
400809d8:	036102        	s32i	a0, a1, 12
400809db:	03e800        	rsr.exccause	a0
400809de:	026102        	s32i	a0, a1, 8
400809e1:	030c00        	rsr.scompare1	a0
400809e4:	1109      	s32i.n	a0, a1, 4
400809e6:	ffebc5        	call0	400808a4 <xtensa_save_high_regs>
400809e9:	0128      	l32i.n	a2, a1, 0
400809eb:	a228      	l32i.n	a2, a2, 40
400809ed:	03e600        	rsr.ps	a0
400809f0:	f30c      	movi.n	a3, 15
400809f2:	100030        	and	a0, a0, a3
400809f5:	00b056        	bnez	a0, 40080a04 <_not_l1>
400809f8:	03e600        	rsr.ps	a0
400809fb:	01a032        	movi	a3, 1
400809fe:	200030        	or	a0, a0, a3
40080a01:	13e600        	wsr.ps	a0

40080a04 <_not_l1>:
40080a04:	006f00        	rsil	a0, 15
40080a07:	2faf32        	movi	a3, -209
40080a0a:	100030        	and	a0, a0, a3
40080a0d:	13c500        	wsr.eps5	a0
40080a10:	13e600        	wsr.ps	a0
40080a13:	002010        	rsync
40080a16:	03f530        	rsr.misc1	a3
40080a19:	0308      	l32i.n	a0, a3, 0
40080a1b:	708c      	beqz.n	a0, 40080a26 <_switch_stacks_3>
40080a1d:	001b      	addi.n	a0, a0, 1
40080a1f:	0309      	s32i.n	a0, a3, 0
40080a21:	013d      	mov.n	a3, a1
40080a23:	000206        	j	40080a2f <_do_call_3>

40080a26 <_switch_stacks_3>:
40080a26:	01c002        	addi	a0, a0, 1
40080a29:	006302        	s32i	a0, a3, 0
40080a2c:	012332        	l32i	a3, a3, 4

40080a2f <_do_call_3>:
40080a2f:	036d      	mov.n	a6, a3
40080a31:	01ad      	mov.n	a10, a1
40080a33:	013d      	mov.n	a3, a1
40080a35:	02bd      	mov.n	a11, a2
40080a37:	0118      	l32i.n	a1, a1, 0
40080a39:	9108      	l32i.n	a0, a1, 36
40080a3b:	44c112        	addi	a1, a1, 68
40080a3e:	000095        	call4	40080a48 <_xstack_call0_5>
40080a41:	031d      	mov.n	a1, a3
40080a43:	062d      	mov.n	a2, a6
40080a45:	000586        	j	40080a5f <_xstack_returned_5>

40080a48 <_xstack_call0_5>:
40080a48:	002136        	entry	a1, 16
40080a4b:	021d      	mov.n	a1, a2
40080a4d:	03c520        	rsr.eps5	a2
40080a50:	13e620        	wsr.ps	a2
40080a53:	000095        	call4	40080a5c <_xstack_call1_5>
40080a56:	062d      	mov.n	a2, a6
40080a58:	f01d      	retw.n
	...

40080a5c <_xstack_call1_5>:
40080a5c:	0007a0        	jx	a7

40080a5f <_xstack_returned_5>:
40080a5f:	006700        	rsil	a0, 7
40080a62:	03f530        	rsr.misc1	a3
40080a65:	0308      	l32i.n	a0, a3, 0
40080a67:	000b      	addi.n	a0, a0, -1
40080a69:	0309      	s32i.n	a0, a3, 0
40080a6b:	261617        	beq	a6, a1, 40080a95 <_restore_3>
40080a6e:	0118      	l32i.n	a1, a1, 0
40080a70:	9108      	l32i.n	a0, a1, 36
40080a72:	44c112        	addi	a1, a1, 68
40080a75:	10ccc0        	and	a12, a12, a12
40080a78:	408030        	rotw	3
40080a7b:	10ccc0        	and	a12, a12, a12
40080a7e:	408030        	rotw	3
40080a81:	10ccc0        	and	a12, a12, a12
40080a84:	408030        	rotw	3
40080a87:	10ccc0        	and	a12, a12, a12
40080a8a:	408030        	rotw	3
40080a8d:	10ccc0        	and	a12, a12, a12
40080a90:	408040        	rotw	4
40080a93:	061d      	mov.n	a1, a6

40080a95 <_restore_3>:
40080a95:	ffa206        	j	40080921 <_restore_context>

40080a98 <xtensa_init_stack>:
40080a98:	004136        	entry	a1, 32
40080a9b:	f87c      	movi.n	a8, -1
40080a9d:	146282        	s32i	a8, a2, 80
40080aa0:	a8c322        	addi	a2, a3, -88
40080aa3:	8c5c      	movi.n	a12, 88
40080aa5:	0b0c      	movi.n	a11, 0
40080aa7:	02ad      	mov.n	a10, a2
40080aa9:	021d25        	call8	40082c7c <memset>
40080aac:	fe6a81        	l32r	a8, 40080454 <_init_end+0x54> (400d037c <z_thread_entry>)
40080aaf:	7249      	s32i.n	a4, a2, 28
40080ab1:	116282        	s32i	a8, a2, 68
40080ab4:	fe6981        	l32r	a8, 40080458 <_init_end+0x58> (50020 <CONFIG_ESP_HEAP_MEM_POOL_REGION_1_SIZE+0x44020>)
40080ab7:	040c      	movi.n	a4, 0
40080ab9:	ccc332        	addi	a3, a3, -52
40080abc:	106282        	s32i	a8, a2, 64
40080abf:	8259      	s32i.n	a5, a2, 32
40080ac1:	6249      	s32i.n	a4, a2, 24
40080ac3:	5249      	s32i.n	a4, a2, 20
40080ac5:	4249      	s32i.n	a4, a2, 16
40080ac7:	3249      	s32i.n	a4, a2, 12
40080ac9:	2279      	s32i.n	a7, a2, 8
40080acb:	1269      	s32i.n	a6, a2, 4
40080acd:	0239      	s32i.n	a3, a2, 0
40080acf:	f01d      	retw.n
40080ad1:	000000        	ill

40080ad4 <arch_new_thread>:
40080ad4:	004136        	entry	a1, 32
40080ad7:	0821f2        	l32i	a15, a1, 32
40080ada:	20e770        	or	a14, a7, a7
40080add:	20d660        	or	a13, a6, a6
40080ae0:	05cd      	mov.n	a12, a5
40080ae2:	04bd      	mov.n	a11, a4
40080ae4:	02ad      	mov.n	a10, a2
40080ae6:	fffb25        	call8	40080a98 <xtensa_init_stack>
40080ae9:	1262a2        	s32i	a10, a2, 72
40080aec:	f01d      	retw.n
	...

40080af0 <z_irq_spurious>:
40080af0:	004136        	entry	a1, 32
40080af3:	03e280        	rsr.interrupt	a8
40080af6:	03e480        	rsr.intenable	a8
40080af9:	0b0c      	movi.n	a11, 0
40080afb:	1a0c      	movi.n	a10, 1
40080afd:	ffd5e5        	call8	4008085c <z_xtensa_fatal_error>
40080b00:	f01d      	retw.n
	...

40080b04 <z_arch_get_next_switch_handle>:
40080b04:	004136        	entry	a1, 32
40080b07:	fe4081        	l32r	a8, 40080408 <_init_end+0x8> (3ffb15ac <_kernel>)
40080b0a:	02ad      	mov.n	a10, a2
40080b0c:	0888      	l32i.n	a8, a8, 0
40080b0e:	0228f6        	bgeui	a8, 2, 40080b14 <z_arch_get_next_switch_handle+0x10>
40080b11:	00d865        	call8	40081898 <z_get_next_switch_handle>
40080b14:	0a2d      	mov.n	a2, a10
40080b16:	f01d      	retw.n

40080b18 <xtensa_int2_c>:
40080b18:	004136        	entry	a1, 32
40080b1b:	03e240        	rsr.interrupt	a4
40080b1e:	03e430        	rsr.intenable	a3
40080b21:	150c      	movi.n	a5, 1
40080b23:	104430        	and	a4, a4, a3
40080b26:	0155c0        	slli	a5, a5, 20
40080b29:	130c      	movi.n	a3, 1
40080b2b:	0133d0        	slli	a3, a3, 19
40080b2e:	0e8437        	bany	a4, a3, 40080b40 <xtensa_int2_c+0x28>
40080b31:	108457        	bany	a4, a5, 40080b45 <xtensa_int2_c+0x2d>
40080b34:	130c      	movi.n	a3, 1
40080b36:	0133b0        	slli	a3, a3, 21
40080b39:	118437        	bany	a4, a3, 40080b4e <xtensa_int2_c+0x36>
40080b3c:	000986        	j	40080b66 <xtensa_int2_c+0x4e>
40080b3f:	00          	.byte 00
40080b40:	381c      	movi.n	a8, 19
40080b42:	000286        	j	40080b50 <xtensa_int2_c+0x38>
40080b45:	481c      	movi.n	a8, 20
40080b47:	053d      	mov.n	a3, a5
40080b49:	0000c6        	j	40080b50 <xtensa_int2_c+0x38>
40080b4c:	00          	.byte 00
40080b4d:	00          	.byte 00
40080b4e:	581c      	movi.n	a8, 21
40080b50:	fe4391        	l32r	a9, 4008045c <_init_end+0x5c> (3ffb0184 <_sw_isr_table>)
40080b53:	304430        	xor	a4, a4, a3
40080b56:	b08890        	addx8	a8, a8, a9
40080b59:	1898      	l32i.n	a9, a8, 4
40080b5b:	08a8      	l32i.n	a10, a8, 0
40080b5d:	0009e0        	callx8	a9
40080b60:	13e330        	wsr.intclear	a3
40080b63:	fff086        	j	40080b29 <xtensa_int2_c+0x11>
40080b66:	20a220        	or	a10, a2, a2
40080b69:	fff9a5        	call8	40080b04 <z_arch_get_next_switch_handle>
40080b6c:	202aa0        	or	a2, a10, a10
40080b6f:	000090        	retw
	...

40080b74 <xtensa_int3_c>:
40080b74:	004136        	entry	a1, 32
40080b77:	03e240        	rsr.interrupt	a4
40080b7a:	03e430        	rsr.intenable	a3
40080b7d:	150c      	movi.n	a5, 1
40080b7f:	104430        	and	a4, a4, a3
40080b82:	016590        	slli	a6, a5, 23
40080b85:	771c      	movi.n	a7, 23
40080b87:	fe3631        	l32r	a3, 40080460 <_init_end+0x60> (408800 <CONFIG_FLASH_SIZE+0x8800>)
40080b8a:	160437        	bnone	a4, a3, 40080ba4 <xtensa_int3_c+0x30>
40080b8d:	113550        	slli	a3, a5, 11
40080b90:	268437        	bany	a4, a3, 40080bba <xtensa_int3_c+0x46>
40080b93:	130c      	movi.n	a3, 1
40080b95:	113310        	slli	a3, a3, 15
40080b98:	248437        	bany	a4, a3, 40080bc0 <xtensa_int3_c+0x4c>
40080b9b:	0135a0        	slli	a3, a5, 22
40080b9e:	480437        	bnone	a4, a3, 40080bea <xtensa_int3_c+0x76>
40080ba1:	000806        	j	40080bc5 <xtensa_int3_c+0x51>
40080ba4:	228467        	bany	a4, a6, 40080bca <xtensa_int3_c+0x56>
40080ba7:	130c      	movi.n	a3, 1
40080ba9:	013350        	slli	a3, a3, 27
40080bac:	228437        	bany	a4, a3, 40080bd2 <xtensa_int3_c+0x5e>
40080baf:	013530        	slli	a3, a5, 29
40080bb2:	340437        	bnone	a4, a3, 40080bea <xtensa_int3_c+0x76>
40080bb5:	d81c      	movi.n	a8, 29
40080bb7:	000646        	j	40080bd4 <xtensa_int3_c+0x60>
40080bba:	b80c      	movi.n	a8, 11
40080bbc:	000506        	j	40080bd4 <xtensa_int3_c+0x60>
40080bbf:	00          	.byte 00
40080bc0:	f80c      	movi.n	a8, 15
40080bc2:	000386        	j	40080bd4 <xtensa_int3_c+0x60>
40080bc5:	681c      	movi.n	a8, 22
40080bc7:	000246        	j	40080bd4 <xtensa_int3_c+0x60>
40080bca:	078d      	mov.n	a8, a7
40080bcc:	063d      	mov.n	a3, a6
40080bce:	000086        	j	40080bd4 <xtensa_int3_c+0x60>
40080bd1:	00          	.byte 00
40080bd2:	b81c      	movi.n	a8, 27
40080bd4:	fe2291        	l32r	a9, 4008045c <_init_end+0x5c> (3ffb0184 <_sw_isr_table>)
40080bd7:	304430        	xor	a4, a4, a3
40080bda:	b08890        	addx8	a8, a8, a9
40080bdd:	1898      	l32i.n	a9, a8, 4
40080bdf:	08a8      	l32i.n	a10, a8, 0
40080be1:	0009e0        	callx8	a9
40080be4:	13e330        	wsr.intclear	a3
40080be7:	ffe706        	j	40080b87 <xtensa_int3_c+0x13>
40080bea:	20a220        	or	a10, a2, a2
40080bed:	fff165        	call8	40080b04 <z_arch_get_next_switch_handle>
40080bf0:	202aa0        	or	a2, a10, a10
40080bf3:	000090        	retw
	...

40080bf8 <xtensa_int4_c>:
40080bf8:	004136        	entry	a1, 32
40080bfb:	03e240        	rsr.interrupt	a4
40080bfe:	03e430        	rsr.intenable	a3
40080c01:	150c      	movi.n	a5, 1
40080c03:	104430        	and	a4, a4, a3
40080c06:	330c      	movi.n	a3, 3
40080c08:	013380        	slli	a3, a3, 24
40080c0b:	110437        	bnone	a4, a3, 40080c20 <xtensa_int4_c+0x28>
40080c0e:	013580        	slli	a3, a5, 24
40080c11:	1f8437        	bany	a4, a3, 40080c34 <xtensa_int4_c+0x3c>
40080c14:	130c      	movi.n	a3, 1
40080c16:	013370        	slli	a3, a3, 25
40080c19:	390437        	bnone	a4, a3, 40080c56 <xtensa_int4_c+0x5e>
40080c1c:	000646        	j	40080c39 <xtensa_int4_c+0x41>
40080c1f:	00          	.byte 00
40080c20:	013540        	slli	a3, a5, 28
40080c23:	178437        	bany	a4, a3, 40080c3e <xtensa_int4_c+0x46>
40080c26:	130c      	movi.n	a3, 1
40080c28:	013320        	slli	a3, a3, 30
40080c2b:	270437        	bnone	a4, a3, 40080c56 <xtensa_int4_c+0x5e>
40080c2e:	e81c      	movi.n	a8, 30
40080c30:	000306        	j	40080c40 <xtensa_int4_c+0x48>
40080c33:	00          	.byte 00
40080c34:	881c      	movi.n	a8, 24
40080c36:	000186        	j	40080c40 <xtensa_int4_c+0x48>
40080c39:	981c      	movi.n	a8, 25
40080c3b:	000046        	j	40080c40 <xtensa_int4_c+0x48>
40080c3e:	c81c      	movi.n	a8, 28
40080c40:	fe0791        	l32r	a9, 4008045c <_init_end+0x5c> (3ffb0184 <_sw_isr_table>)
40080c43:	304430        	xor	a4, a4, a3
40080c46:	b08890        	addx8	a8, a8, a9
40080c49:	1898      	l32i.n	a9, a8, 4
40080c4b:	08a8      	l32i.n	a10, a8, 0
40080c4d:	0009e0        	callx8	a9
40080c50:	13e330        	wsr.intclear	a3
40080c53:	ffebc6        	j	40080c06 <xtensa_int4_c+0xe>
40080c56:	20a220        	or	a10, a2, a2
40080c59:	ffeaa5        	call8	40080b04 <z_arch_get_next_switch_handle>
40080c5c:	202aa0        	or	a2, a10, a10
40080c5f:	000090        	retw
	...

40080c64 <xtensa_int5_c>:
40080c64:	004136        	entry	a1, 32
40080c67:	03e240        	rsr.interrupt	a4
40080c6a:	03e430        	rsr.intenable	a3
40080c6d:	150c      	movi.n	a5, 1
40080c6f:	104430        	and	a4, a4, a3
40080c72:	015560        	slli	a5, a5, 26
40080c75:	130c      	movi.n	a3, 1
40080c77:	113300        	slli	a3, a3, 16
40080c7a:	088437        	bany	a4, a3, 40080c86 <xtensa_int5_c+0x22>
40080c7d:	0b8457        	bany	a4, a5, 40080c8c <xtensa_int5_c+0x28>
40080c80:	012496        	bltz	a4, 40080c96 <xtensa_int5_c+0x32>
40080c83:	000bc6        	j	40080cb6 <xtensa_int5_c+0x52>
40080c86:	081c      	movi.n	a8, 16
40080c88:	000506        	j	40080ca0 <xtensa_int5_c+0x3c>
40080c8b:	00          	.byte 00
40080c8c:	a81c      	movi.n	a8, 26
40080c8e:	053d      	mov.n	a3, a5
40080c90:	000306        	j	40080ca0 <xtensa_int5_c+0x3c>
40080c93:	00          	.byte 00
40080c94:	00          	.byte 00
40080c95:	00          	.byte 00
40080c96:	f81c      	movi.n	a8, 31
40080c98:	f37c      	movi.n	a3, -1
40080c9a:	401800        	ssl	a8
40080c9d:	a13300        	sll	a3, a3
40080ca0:	fdef91        	l32r	a9, 4008045c <_init_end+0x5c> (3ffb0184 <_sw_isr_table>)
40080ca3:	304430        	xor	a4, a4, a3
40080ca6:	b08890        	addx8	a8, a8, a9
40080ca9:	1898      	l32i.n	a9, a8, 4
40080cab:	08a8      	l32i.n	a10, a8, 0
40080cad:	0009e0        	callx8	a9
40080cb0:	13e330        	wsr.intclear	a3
40080cb3:	ffef86        	j	40080c75 <xtensa_int5_c+0x11>
40080cb6:	20a220        	or	a10, a2, a2
40080cb9:	ffe4a5        	call8	40080b04 <z_arch_get_next_switch_handle>
40080cbc:	202aa0        	or	a2, a10, a10
40080cbf:	000090        	retw
	...

40080cc4 <xtensa_int6_c>:
40080cc4:	004136        	entry	a1, 32
40080cc7:	20a220        	or	a10, a2, a2
40080cca:	03e280        	rsr.interrupt	a8
40080ccd:	03e480        	rsr.intenable	a8
40080cd0:	ffe325        	call8	40080b04 <z_arch_get_next_switch_handle>
40080cd3:	202aa0        	or	a2, a10, a10
40080cd6:	000090        	retw
40080cd9:	000000        	ill

40080cdc <xtensa_int7_c>:
40080cdc:	004136        	entry	a1, 32
40080cdf:	03e240        	rsr.interrupt	a4
40080ce2:	03e430        	rsr.intenable	a3
40080ce5:	fddd51        	l32r	a5, 4008045c <_init_end+0x5c> (3ffb0184 <_sw_isr_table>)
40080ce8:	104430        	and	a4, a4, a3
40080ceb:	01a032        	movi	a3, 1
40080cee:	113320        	slli	a3, a3, 14
40080cf1:	110437        	bnone	a4, a3, 40080d06 <xtensa_int7_c+0x2a>
40080cf4:	1d2582        	l32i	a8, a5, 116
40080cf7:	1c25a2        	l32i	a10, a5, 112
40080cfa:	304430        	xor	a4, a4, a3
40080cfd:	0008e0        	callx8	a8
40080d00:	13e330        	wsr.intclear	a3
40080d03:	fff906        	j	40080ceb <xtensa_int7_c+0xf>
40080d06:	20a220        	or	a10, a2, a2
40080d09:	ffdfa5        	call8	40080b04 <z_arch_get_next_switch_handle>
40080d0c:	202aa0        	or	a2, a10, a10
40080d0f:	000090        	retw
	...

40080d14 <xtensa_excint1_c>:
40080d14:	006136        	entry	a1, 48
40080d17:	0238      	l32i.n	a3, a2, 0
40080d19:	03e850        	rsr.exccause	a5
40080d1c:	021566        	bnei	a5, 1, 40080d22 <xtensa_excint1_c+0xe>
40080d1f:	004a46        	j	40080e4c <xtensa_excint1_c+0x138>
40080d22:	024526        	beqi	a5, 4, 40080d28 <xtensa_excint1_c+0x14>
40080d25:	004b06        	j	40080e55 <xtensa_excint1_c+0x141>
40080d28:	03e240        	rsr.interrupt	a4
40080d2b:	03e430        	rsr.intenable	a3
40080d2e:	160c      	movi.n	a6, 1
40080d30:	0176f0        	slli	a7, a6, 17
40080d33:	104430        	and	a4, a4, a3
40080d36:	80a782        	movi	a8, 0x780
40080d39:	116640        	slli	a6, a6, 12
40080d3c:	643040        	extui	a3, a4, 0, 7
40080d3f:	049316        	beqz	a3, 40080d8c <xtensa_excint1_c+0x78>
40080d42:	243040        	extui	a3, a4, 0, 3
40080d45:	739c      	beqz.n	a3, 40080d60 <xtensa_excint1_c+0x4c>
40080d47:	043040        	extui	a3, a4, 0, 1
40080d4a:	09a356        	bnez	a3, 40080de8 <xtensa_excint1_c+0xd4>
40080d4d:	2a0c      	movi.n	a10, 2
40080d4f:	0204a7        	bnone	a4, a10, 40080d55 <xtensa_excint1_c+0x41>
40080d52:	0025c6        	j	40080ded <xtensa_excint1_c+0xd9>
40080d55:	430c      	movi.n	a3, 4
40080d57:	028437        	bany	a4, a3, 40080d5d <xtensa_excint1_c+0x49>
40080d5a:	004d46        	j	40080e93 <xtensa_excint1_c+0x17f>
40080d5d:	0024c6        	j	40080df4 <xtensa_excint1_c+0xe0>
40080d60:	831c      	movi.n	a3, 24
40080d62:	120437        	bnone	a4, a3, 40080d78 <xtensa_excint1_c+0x64>
40080d65:	830c      	movi.n	a3, 8
40080d67:	020437        	bnone	a4, a3, 40080d6d <xtensa_excint1_c+0x59>
40080d6a:	0022c6        	j	40080df9 <xtensa_excint1_c+0xe5>
40080d6d:	031c      	movi.n	a3, 16
40080d6f:	028437        	bany	a4, a3, 40080d75 <xtensa_excint1_c+0x61>
40080d72:	004746        	j	40080e93 <xtensa_excint1_c+0x17f>
40080d75:	002146        	j	40080dfe <xtensa_excint1_c+0xea>
40080d78:	032c      	movi.n	a3, 32
40080d7a:	020437        	bnone	a4, a3, 40080d80 <xtensa_excint1_c+0x6c>
40080d7d:	002086        	j	40080e03 <xtensa_excint1_c+0xef>
40080d80:	034c      	movi.n	a3, 64
40080d82:	028437        	bany	a4, a3, 40080d88 <xtensa_excint1_c+0x74>
40080d85:	004286        	j	40080e93 <xtensa_excint1_c+0x17f>
40080d88:	001f06        	j	40080e08 <xtensa_excint1_c+0xf4>
40080d8b:	00          	.byte 00
40080d8c:	2a0487        	bnone	a4, a8, 40080dba <xtensa_excint1_c+0xa6>
40080d8f:	80a132        	movi	a3, 0x180
40080d92:	120437        	bnone	a4, a3, 40080da8 <xtensa_excint1_c+0x94>
40080d95:	80a032        	movi	a3, 128
40080d98:	718437        	bany	a4, a3, 40080e0d <xtensa_excint1_c+0xf9>
40080d9b:	00a132        	movi	a3, 0x100
40080d9e:	028437        	bany	a4, a3, 40080da4 <xtensa_excint1_c+0x90>
40080da1:	003b86        	j	40080e93 <xtensa_excint1_c+0x17f>
40080da4:	001ac6        	j	40080e13 <xtensa_excint1_c+0xff>
40080da7:	00          	.byte 00
40080da8:	00a232        	movi	a3, 0x200
40080dab:	698437        	bany	a4, a3, 40080e18 <xtensa_excint1_c+0x104>
40080dae:	00a432        	movi	a3, 0x400
40080db1:	028437        	bany	a4, a3, 40080db7 <xtensa_excint1_c+0xa3>
40080db4:	0036c6        	j	40080e93 <xtensa_excint1_c+0x17f>
40080db7:	001886        	j	40080e1d <xtensa_excint1_c+0x109>
40080dba:	330c      	movi.n	a3, 3
40080dbc:	113340        	slli	a3, a3, 12
40080dbf:	110437        	bnone	a4, a3, 40080dd4 <xtensa_excint1_c+0xc0>
40080dc2:	5c8467        	bany	a4, a6, 40080e22 <xtensa_excint1_c+0x10e>
40080dc5:	130c      	movi.n	a3, 1
40080dc7:	113330        	slli	a3, a3, 13
40080dca:	028437        	bany	a4, a3, 40080dd0 <xtensa_excint1_c+0xbc>
40080dcd:	003086        	j	40080e93 <xtensa_excint1_c+0x17f>
40080dd0:	001546        	j	40080e29 <xtensa_excint1_c+0x115>
40080dd3:	00          	.byte 00
40080dd4:	568477        	bany	a4, a7, 40080e2e <xtensa_excint1_c+0x11a>
40080dd7:	130c      	movi.n	a3, 1
40080dd9:	0133e0        	slli	a3, a3, 18
40080ddc:	028437        	bany	a4, a3, 40080de2 <xtensa_excint1_c+0xce>
40080ddf:	002c06        	j	40080e93 <xtensa_excint1_c+0x17f>
40080de2:	291c      	movi.n	a9, 18
40080de4:	001286        	j	40080e32 <xtensa_excint1_c+0x11e>
40080de7:	00          	.byte 00
40080de8:	090c      	movi.n	a9, 0
40080dea:	001106        	j	40080e32 <xtensa_excint1_c+0x11e>
40080ded:	190c      	movi.n	a9, 1
40080def:	0a3d      	mov.n	a3, a10
40080df1:	000f46        	j	40080e32 <xtensa_excint1_c+0x11e>
40080df4:	0a9d      	mov.n	a9, a10
40080df6:	000e06        	j	40080e32 <xtensa_excint1_c+0x11e>
40080df9:	390c      	movi.n	a9, 3
40080dfb:	000cc6        	j	40080e32 <xtensa_excint1_c+0x11e>
40080dfe:	059d      	mov.n	a9, a5
40080e00:	000b86        	j	40080e32 <xtensa_excint1_c+0x11e>
40080e03:	590c      	movi.n	a9, 5
40080e05:	000a46        	j	40080e32 <xtensa_excint1_c+0x11e>
40080e08:	690c      	movi.n	a9, 6
40080e0a:	000906        	j	40080e32 <xtensa_excint1_c+0x11e>
40080e0d:	790c      	movi.n	a9, 7
40080e0f:	0007c6        	j	40080e32 <xtensa_excint1_c+0x11e>
40080e12:	00          	.byte 00
40080e13:	890c      	movi.n	a9, 8
40080e15:	000646        	j	40080e32 <xtensa_excint1_c+0x11e>
40080e18:	990c      	movi.n	a9, 9
40080e1a:	000506        	j	40080e32 <xtensa_excint1_c+0x11e>
40080e1d:	a90c      	movi.n	a9, 10
40080e1f:	0003c6        	j	40080e32 <xtensa_excint1_c+0x11e>
40080e22:	c90c      	movi.n	a9, 12
40080e24:	063d      	mov.n	a3, a6
40080e26:	000206        	j	40080e32 <xtensa_excint1_c+0x11e>
40080e29:	d90c      	movi.n	a9, 13
40080e2b:	0000c6        	j	40080e32 <xtensa_excint1_c+0x11e>
40080e2e:	191c      	movi.n	a9, 17
40080e30:	073d      	mov.n	a3, a7
40080e32:	fd8aa1        	l32r	a10, 4008045c <_init_end+0x5c> (3ffb0184 <_sw_isr_table>)
40080e35:	304430        	xor	a4, a4, a3
40080e38:	b099a0        	addx8	a9, a9, a10
40080e3b:	19b8      	l32i.n	a11, a9, 4
40080e3d:	09a8      	l32i.n	a10, a9, 0
40080e3f:	0189      	s32i.n	a8, a1, 0
40080e41:	000be0        	callx8	a11
40080e44:	13e330        	wsr.intclear	a3
40080e47:	0188      	l32i.n	a8, a1, 0
40080e49:	ffbbc6        	j	40080d3c <xtensa_excint1_c+0x28>
40080e4c:	8348      	l32i.n	a4, a3, 32
40080e4e:	443b      	addi.n	a4, a4, 3
40080e50:	8349      	s32i.n	a4, a3, 32
40080e52:	000f46        	j	40080e93 <xtensa_excint1_c+0x17f>
40080e55:	03ee40        	rsr.excvaddr	a4
40080e58:	fd8361        	l32r	a6, 40080464 <_init_end+0x64> (4008095b <xtensa_arch_except_epc>)
40080e5b:	082342        	l32i	a4, a3, 32
40080e5e:	129647        	bne	a6, a4, 40080e74 <xtensa_excint1_c+0x160>
40080e61:	00f556        	bnez	a5, 40080e74 <xtensa_excint1_c+0x160>
40080e64:	3fa042        	movi	a4, 63
40080e67:	13e840        	wsr.exccause	a4
40080e6a:	b3a8      	l32i.n	a10, a3, 44
40080e6c:	02bd      	mov.n	a11, a2
40080e6e:	ff9ee5        	call8	4008085c <z_xtensa_fatal_error>
40080e71:	0004c6        	j	40080e88 <xtensa_excint1_c+0x174>
40080e74:	20b220        	or	a11, a2, a2
40080e77:	00a0a2        	movi	a10, 0
40080e7a:	831c      	movi.n	a3, 24
40080e7c:	ff9de5        	call8	4008085c <z_xtensa_fatal_error>
40080e7f:	053357        	bltu	a3, a5, 40080e88 <xtensa_excint1_c+0x174>
40080e82:	fd7931        	l32r	a3, 40080468 <_init_end+0x68> (1010020 <CONFIG_FLASH_SIZE+0xc10020>)
40080e85:	0ad357        	bbs	a3, a5, 40080e93 <xtensa_excint1_c+0x17f>
40080e88:	006730        	rsil	a3, 7
40080e8b:	fd5f31        	l32r	a3, 40080408 <_init_end+0x8> (3ffb15ac <_kernel>)
40080e8e:	140c      	movi.n	a4, 1
40080e90:	006342        	s32i	a4, a3, 0
40080e93:	02ad      	mov.n	a10, a2
40080e95:	ffc6e5        	call8	40080b04 <z_arch_get_next_switch_handle>
40080e98:	0a2d      	mov.n	a2, a10
40080e9a:	f01d      	retw.n

40080e9c <z_xtensa_cpu_process_stack_pc>:
40080e9c:	004136        	entry	a1, 32
40080e9f:	01f2d6        	bgez	a2, 40080ec2 <z_xtensa_cpu_process_stack_pc+0x26>
40080ea2:	fd7391        	l32r	a9, 40080470 <_init_end+0x70> (3ffb1474 <cause>)
40080ea5:	fd7181        	l32r	a8, 4008046c <_init_end+0x6c> (3fffffff <dram0_seg_1_heap+0x191cf>)
40080ea8:	0998      	l32i.n	a9, a9, 0
40080eaa:	102280        	and	a2, a2, a8
40080ead:	481c      	movi.n	a8, 20
40080eaf:	071987        	beq	a9, a8, 40080eba <z_xtensa_cpu_process_stack_pc+0x1e>
40080eb2:	fd7081        	l32r	a8, 40080474 <_init_end+0x74> (3ffb1478 <mask>)
40080eb5:	0888      	l32i.n	a8, a8, 0
40080eb7:	000106        	j	40080ebf <z_xtensa_cpu_process_stack_pc+0x23>
40080eba:	180c      	movi.n	a8, 1
40080ebc:	018820        	slli	a8, a8, 30
40080ebf:	202280        	or	a2, a2, a8
40080ec2:	fdc222        	addi	a2, a2, -3
40080ec5:	f01d      	retw.n
	...

40080ec8 <z_xtensa_backtrace_get_next_frame>:
40080ec8:	004136        	entry	a1, 32
40080ecb:	012282        	l32i	a8, a2, 4
40080ece:	0222a2        	l32i	a10, a2, 8
40080ed1:	f0c892        	addi	a9, a8, -16
40080ed4:	02a9      	s32i.n	a10, a2, 0
40080ed6:	0998      	l32i.n	a9, a9, 0
40080ed8:	f4c882        	addi	a8, a8, -12
40080edb:	2299      	s32i.n	a9, a2, 8
40080edd:	0888      	l32i.n	a8, a8, 0
40080edf:	fd6691        	l32r	a9, 40080478 <_init_end+0x78> (c0051ff0 <_rtc_bss_end+0x70051ff0>)
40080ee2:	fd66b1        	l32r	a11, 4008047c <_init_end+0x7c> (51fe0 <CONFIG_ESP_HEAP_MEM_POOL_REGION_1_SIZE+0x45fe0>)
40080ee5:	1289      	s32i.n	a8, a2, 4
40080ee7:	989a      	add.n	a9, a8, a9
40080ee9:	020c      	movi.n	a2, 0
40080eeb:	0d3b97        	bltu	a11, a9, 40080efc <z_xtensa_backtrace_get_next_frame+0x34>
40080eee:	348080        	extui	a8, a8, 0, 4
40080ef1:	079827        	bne	a8, a2, 40080efc <z_xtensa_backtrace_get_next_frame+0x34>
40080ef4:	fffa65        	call8	40080e9c <z_xtensa_cpu_process_stack_pc>
40080ef7:	ff72a5        	call8	40080620 <esp_ptr_executable>
40080efa:	0a2d      	mov.n	a2, a10
40080efc:	042020        	extui	a2, a2, 0, 1
40080eff:	f01d      	retw.n
40080f01:	000000        	ill

40080f04 <z_xtensa_backtrace_print>:
40080f04:	006136        	entry	a1, 48
40080f07:	f47c      	movi.n	a4, -1
40080f09:	0212e6        	bgei	a2, 1, 40080f0f <z_xtensa_backtrace_print+0xb>
40080f0c:	003186        	j	40080fd6 <z_xtensa_backtrace_print+0xd2>
40080f0f:	03dd      	mov.n	a13, a3
40080f11:	c18b      	addi.n	a12, a1, 8
40080f13:	b14b      	addi.n	a11, a1, 4
40080f15:	01ad      	mov.n	a10, a1
40080f17:	ff74e5        	call8	40080664 <z_xtensa_backtrace_get_start>
40080f1a:	0348      	l32i.n	a4, a3, 0
40080f1c:	1448      	l32i.n	a4, a4, 4
40080f1e:	043d      	mov.n	a3, a4
40080f20:	fd5451        	l32r	a5, 40080470 <_init_end+0x70> (3ffb1474 <cause>)
40080f23:	441c      	movi.n	a4, 20
40080f25:	0539      	s32i.n	a3, a5, 0
40080f27:	0e1347        	beq	a3, a4, 40080f39 <z_xtensa_backtrace_print+0x35>
40080f2a:	0138      	l32i.n	a3, a1, 0
40080f2c:	f47c      	movi.n	a4, -1
40080f2e:	014420        	slli	a4, a4, 30
40080f31:	103340        	and	a3, a3, a4
40080f34:	fd5041        	l32r	a4, 40080474 <_init_end+0x74> (3ffb1478 <mask>)
40080f37:	0439      	s32i.n	a3, a4, 0
40080f39:	fd51a1        	l32r	a10, 40080480 <_init_end+0x80> (3ffb0040 <timeout_list+0x8>)
40080f3c:	220b      	addi.n	a2, a2, -1
40080f3e:	01c725        	call8	40082bb0 <printk>
40080f41:	01a8      	l32i.n	a10, a1, 0
40080f43:	130c      	movi.n	a3, 1
40080f45:	fff565        	call8	40080e9c <z_xtensa_cpu_process_stack_pc>
40080f48:	0abd      	mov.n	a11, a10
40080f4a:	11c8      	l32i.n	a12, a1, 4
40080f4c:	fd4ea1        	l32r	a10, 40080484 <_init_end+0x84> (3ffb004f <timeout_list+0x17>)
40080f4f:	01c625        	call8	40082bb0 <printk>
40080f52:	fd4981        	l32r	a8, 40080478 <_init_end+0x78> (c0051ff0 <_rtc_bss_end+0x70051ff0>)
40080f55:	1148      	l32i.n	a4, a1, 4
40080f57:	fd4991        	l32r	a9, 4008047c <_init_end+0x7c> (51fe0 <CONFIG_ESP_HEAP_MEM_POOL_REGION_1_SIZE+0x45fe0>)
40080f5a:	848a      	add.n	a8, a4, a8
40080f5c:	1a3987        	bltu	a9, a8, 40080f7a <z_xtensa_backtrace_print+0x76>
40080f5f:	344040        	extui	a4, a4, 0, 4
40080f62:	44dc      	bnez.n	a4, 40080f7a <z_xtensa_backtrace_print+0x76>
40080f64:	01a8      	l32i.n	a10, a1, 0
40080f66:	043d      	mov.n	a3, a4
40080f68:	fff325        	call8	40080e9c <z_xtensa_cpu_process_stack_pc>
40080f6b:	ff6b65        	call8	40080620 <esp_ptr_executable>
40080f6e:	8acc      	bnez.n	a10, 40080f7a <z_xtensa_backtrace_print+0x76>
40080f70:	0548      	l32i.n	a4, a5, 0
40080f72:	150c      	movi.n	a5, 1
40080f74:	ecc442        	addi	a4, a4, -20
40080f77:	933540        	movnez	a3, a5, a4
40080f7a:	140c      	movi.n	a4, 1
40080f7c:	000806        	j	40080fa0 <z_xtensa_backtrace_print+0x9c>
40080f7f:	00          	.byte 00
40080f80:	20a110        	or	a10, a1, a1
40080f83:	fff465        	call8	40080ec8 <z_xtensa_backtrace_get_next_frame>
40080f86:	303a40        	xor	a3, a10, a4
40080f89:	01a8      	l32i.n	a10, a1, 0
40080f8b:	220b      	addi.n	a2, a2, -1
40080f8d:	fff0e5        	call8	40080e9c <z_xtensa_cpu_process_stack_pc>
40080f90:	0abd      	mov.n	a11, a10
40080f92:	11c8      	l32i.n	a12, a1, 4
40080f94:	fd3ca1        	l32r	a10, 40080484 <_init_end+0x84> (3ffb004f <timeout_list+0x17>)
40080f97:	743030        	extui	a3, a3, 0, 8
40080f9a:	01c165        	call8	40082bb0 <printk>
40080f9d:	090226        	beqi	a2, -1, 40080faa <z_xtensa_backtrace_print+0xa6>
40080fa0:	2158      	l32i.n	a5, a1, 8
40080fa2:	a5ac      	beqz.n	a5, 40080fd0 <z_xtensa_backtrace_print+0xcc>
40080fa4:	fd8316        	beqz	a3, 40080f80 <z_xtensa_backtrace_print+0x7c>
40080fa7:	000046        	j	40080fac <z_xtensa_backtrace_print+0xa8>
40080faa:	a38c      	beqz.n	a3, 40080fb8 <z_xtensa_backtrace_print+0xb4>
40080fac:	fd37a1        	l32r	a10, 40080488 <_init_end+0x88> (3ffb005e <timeout_list+0x26>)
40080faf:	f47c      	movi.n	a4, -1
40080fb1:	01bfe5        	call8	40082bb0 <printk>
40080fb4:	000306        	j	40080fc4 <z_xtensa_backtrace_print+0xc0>
40080fb7:	00          	.byte 00
40080fb8:	2128      	l32i.n	a2, a1, 8
40080fba:	428c      	beqz.n	a2, 40080fc2 <z_xtensa_backtrace_print+0xbe>
40080fbc:	fd34a1        	l32r	a10, 4008048c <_init_end+0x8c> (3ffb006c <timeout_list+0x34>)
40080fbf:	01bf25        	call8	40082bb0 <printk>
40080fc2:	040c      	movi.n	a4, 0
40080fc4:	fd33a1        	l32r	a10, 40080490 <_init_end+0x90> (3ffb007a <timeout_list+0x42>)
40080fc7:	01bea5        	call8	40082bb0 <printk>
40080fca:	000206        	j	40080fd6 <z_xtensa_backtrace_print+0xd2>
40080fcd:	00          	.byte 00
40080fce:	00          	.byte 00
40080fcf:	00          	.byte 00
40080fd0:	fee316        	beqz	a3, 40080fc2 <z_xtensa_backtrace_print+0xbe>
40080fd3:	fff546        	j	40080fac <z_xtensa_backtrace_print+0xa8>
40080fd6:	042d      	mov.n	a2, a4
40080fd8:	f01d      	retw.n
	...

40080fdc <z_xtensa_dump_stack>:
40080fdc:	004136        	entry	a1, 32
40080fdf:	f01d      	retw.n
40080fe1:	000000        	ill

40080fe4 <z_impl_k_busy_wait>:
40080fe4:	004136        	entry	a1, 32
40080fe7:	22ac      	beqz.n	a2, 4008100d <z_impl_k_busy_wait+0x29>
40080fe9:	011225        	call8	4008210c <sys_clock_cycle_get_32>
40080fec:	0a3d      	mov.n	a3, a10
40080fee:	fd29a1        	l32r	a10, 40080494 <_init_end+0x94> (e4e1c00 <CONFIG_SYS_CLOCK_HW_CYCLES_PER_SEC>)
40080ff1:	fd09c1        	l32r	a12, 40080418 <_init_end+0x18> (f4240 <CONFIG_ESP_HEAP_MEM_POOL_REGION_1_SIZE+0xe8240>)
40080ff4:	a2b2a0        	muluh	a11, a2, a10
40080ff7:	82a2a0        	mull	a10, a2, a10
40080ffa:	0d0c      	movi.n	a13, 0
40080ffc:	fd2781        	l32r	a8, 40080498 <_init_end+0x98> (4000cff8 <__udivdi3>)
40080fff:	0008e0        	callx8	a8
40081002:	0a2d      	mov.n	a2, a10
40081004:	011065        	call8	4008210c <sys_clock_cycle_get_32>
40081007:	c0aa30        	sub	a10, a10, a3
4008100a:	f63a27        	bltu	a10, a2, 40081004 <z_impl_k_busy_wait+0x20>
4008100d:	f01d      	retw.n
	...

40081010 <k_sys_fatal_error_handler>:
40081010:	004136        	entry	a1, 32
40081013:	02ad      	mov.n	a10, a2
40081015:	00e925        	call8	40081ea8 <arch_system_halt>

40081018 <z_fatal_error>:
40081018:	004136        	entry	a1, 32
4008101b:	006350        	rsil	a5, 3
4008101e:	009e25        	call8	40081a00 <z_impl_z_current_get>
40081021:	204aa0        	or	a4, a10, a10
40081024:	03bd      	mov.n	a11, a3
40081026:	02ad      	mov.n	a10, a2
40081028:	fffe65        	call8	40081010 <k_sys_fatal_error_handler>
4008102b:	13e650        	wsr.ps	a5
4008102e:	002010        	rsync
40081031:	04ad      	mov.n	a10, a4
40081033:	00a7a5        	call8	40081aac <z_impl_k_thread_abort>
40081036:	f01d      	retw.n

40081038 <z_sys_init_run_level>:
40081038:	004136        	entry	a1, 32
4008103b:	fd1841        	l32r	a4, 4008049c <_init_end+0x9c> (3ffb0080 <levels$0>)
4008103e:	ffa052        	movi	a5, 255
40081041:	a03240        	addx4	a3, a2, a4
40081044:	a02240        	addx4	a2, a2, a4
40081047:	0338      	l32i.n	a3, a3, 0
40081049:	1228      	l32i.n	a2, a2, 4
4008104b:	140c      	movi.n	a4, 1
4008104d:	000b46        	j	4008107e <z_sys_init_run_level+0x46>
40081050:	1368      	l32i.n	a6, a3, 4
40081052:	0388      	l32i.n	a8, a3, 0
40081054:	16ac      	beqz.n	a6, 40081079 <z_sys_init_run_level+0x41>
40081056:	089c      	beqz.n	a8, 4008106a <z_sys_init_run_level+0x32>
40081058:	06ad      	mov.n	a10, a6
4008105a:	0008e0        	callx8	a8
4008105d:	9a8c      	beqz.n	a10, 4008106a <z_sys_init_run_level+0x32>
4008105f:	3688      	l32i.n	a8, a6, 12
40081061:	60a1a0        	abs	a10, a10
40081064:	43aa50        	min	a10, a10, a5
40081067:	0048a2        	s8i	a10, a8, 0
4008106a:	3688      	l32i.n	a8, a6, 12
4008106c:	010862        	l8ui	a6, a8, 1
4008106f:	206640        	or	a6, a6, a4
40081072:	014862        	s8i	a6, a8, 1
40081075:	0000c6        	j	4008107c <z_sys_init_run_level+0x44>
40081078:	00          	.byte 00
40081079:	0008e0        	callx8	a8
4008107c:	338b      	addi.n	a3, a3, 8
4008107e:	ce3327        	bltu	a3, a2, 40081050 <z_sys_init_run_level+0x18>
40081081:	f01d      	retw.n
	...

40081084 <bg_thread_main>:
40081084:	004136        	entry	a1, 32
40081087:	fd0681        	l32r	a8, 400804a0 <_init_end+0xa0> (3ffb15fc <z_sys_post_kernel>)
4008108a:	190c      	movi.n	a9, 1
4008108c:	3a0c      	movi.n	a10, 3
4008108e:	004892        	s8i	a9, a8, 0
40081091:	fffa65        	call8	40081038 <z_sys_init_run_level>
40081094:	00de25        	call8	40081e78 <boot_banner>
40081097:	4a0c      	movi.n	a10, 4
40081099:	fff9e5        	call8	40081038 <z_sys_init_run_level>
4008109c:	002525        	call8	400812f0 <z_init_static_threads>
4008109f:	00e2a5        	call8	40081ec8 <main>
400810a2:	fd0091        	l32r	a9, 400804a4 <_init_end+0xa4> (3ffb13f0 <z_main_thread>)
400810a5:	ea7c      	movi.n	a10, -2
400810a7:	0c0982        	l8ui	a8, a9, 12
400810aa:	1088a0        	and	a8, a8, a10
400810ad:	0c4982        	s8i	a8, a9, 12
400810b0:	f01d      	retw.n
	...

400810b4 <z_early_memset>:
400810b4:	004136        	entry	a1, 32
400810b7:	04cd      	mov.n	a12, a4
400810b9:	03bd      	mov.n	a11, a3
400810bb:	02ad      	mov.n	a10, a2
400810bd:	01bbe5        	call8	40082c7c <memset>
400810c0:	f01d      	retw.n
	...

400810c4 <z_bss_zero>:
400810c4:	004136        	entry	a1, 32
400810c7:	fcf9a1        	l32r	a10, 400804ac <_init_end+0xac> (3ffb02e8 <kheap__system_heap>)
400810ca:	fcf7c1        	l32r	a12, 400804a8 <_init_end+0xa8> (3ffb1600 <__bss_end>)
400810cd:	0b0c      	movi.n	a11, 0
400810cf:	c0cca0        	sub	a12, a12, a10
400810d2:	fffe25        	call8	400810b4 <z_early_memset>
400810d5:	f01d      	retw.n
	...

400810d8 <z_init_cpu>:
400810d8:	006136        	entry	a1, 48
400810db:	fcf581        	l32r	a8, 400804b0 <_init_end+0xb0> (3ffb1398 <z_idle_threads>)
400810de:	a03220        	addx4	a3, a2, a2
400810e1:	904320        	addx2	a4, a3, a2
400810e4:	b04480        	addx8	a4, a4, a8
400810e7:	fcc881        	l32r	a8, 40080408 <_init_end+0x8> (3ffb15ac <_kernel>)
400810ea:	fcf3b1        	l32r	a11, 400804b8 <_init_end+0xb8> (3ffe6230 <z_idle_stacks>)
400810ed:	190c      	movi.n	a9, 1
400810ef:	a03380        	addx4	a3, a3, a8
400810f2:	0f0c      	movi.n	a15, 0
400810f4:	118260        	slli	a8, a2, 10
400810f7:	2199      	s32i.n	a9, a1, 8
400810f9:	fceed1        	l32r	a13, 400804b4 <_init_end+0xb4> (40081368 <idle>)
400810fc:	f90c      	movi.n	a9, 15
400810fe:	1199      	s32i.n	a9, a1, 4
40081100:	bb8a      	add.n	a11, a11, a8
40081102:	04ad      	mov.n	a10, a4
40081104:	31f9      	s32i.n	a15, a1, 12
40081106:	01f9      	s32i.n	a15, a1, 0
40081108:	03ed      	mov.n	a14, a3
4008110a:	00a4c2        	movi	a12, 0x400
4008110d:	0018e5        	call8	4008129c <z_setup_new_thread>
40081110:	0d0482        	l8ui	a8, a4, 13
40081113:	b97c      	movi.n	a9, -5
40081115:	108890        	and	a8, a8, a9
40081118:	0d4482        	s8i	a8, a4, 13
4008111b:	3349      	s32i.n	a4, a3, 12
4008111d:	104322        	s8i	a2, a3, 16
40081120:	fce741        	l32r	a4, 400804bc <_init_end+0xbc> (3ffe5a30 <z_interrupt_stacks>)
40081123:	221b      	addi.n	a2, a2, 1
40081125:	112250        	slli	a2, a2, 11
40081128:	224a      	add.n	a2, a2, a4
4008112a:	fce541        	l32r	a4, 400804c0 <_init_end+0xc0> (3ffb15a8 <_cpus_active>)
4008112d:	016322        	s32i	a2, a3, 4
40081130:	0438      	l32i.n	a3, a4, 0
40081132:	231b      	addi.n	a2, a3, 1
40081134:	038d      	mov.n	a8, a3
40081136:	130c80        	wsr.scompare1	a8
40081139:	00e422        	s32c1i	a2, a4, 0
4008113c:	f09327        	bne	a3, a2, 40081130 <z_init_cpu+0x58>
4008113f:	f01d      	retw.n
40081141:	000000        	ill

40081144 <z_cstart>:
40081144:	012136        	entry	a1, 144
40081147:	00a0a2        	movi	a10, 0
4008114a:	ffeee5        	call8	40081038 <z_sys_init_run_level>
4008114d:	fcae21        	l32r	a2, 40080408 <_init_end+0x8> (3ffb15ac <_kernel>)
40081150:	030c      	movi.n	a3, 0
40081152:	0239      	s32i.n	a3, a2, 0
40081154:	13f520        	wsr.misc1	a2
40081157:	01a142        	movi	a4, 0x101
4008115a:	0e5142        	s16i	a4, a1, 28
4008115d:	10c142        	addi	a4, a1, 16
40081160:	20a440        	or	a10, a4, a4
40081163:	00d0a5        	call8	40081e6c <k_thread_system_pool_assign>
40081166:	2249      	s32i.n	a4, a2, 8
40081168:	00d1a5        	call8	40081e84 <z_device_state_init>
4008116b:	1a0c      	movi.n	a10, 1
4008116d:	ffeca5        	call8	40081038 <z_sys_init_run_level>
40081170:	2a0c      	movi.n	a10, 2
40081172:	ffec65        	call8	40081038 <z_sys_init_run_level>
40081175:	0075a5        	call8	400818d0 <z_sched_init>
40081178:	fccb41        	l32r	a4, 400804a4 <_init_end+0xa4> (3ffb13f0 <z_main_thread>)
4008117b:	fcd451        	l32r	a5, 400804cc <_init_end+0xcc> (3ffb0098 <levels$0+0x18>)
4008117e:	5249      	s32i.n	a4, a2, 20
40081180:	fcd1d1        	l32r	a13, 400804c4 <_init_end+0xc4> (40081084 <bg_thread_main>)
40081183:	fcd1b1        	l32r	a11, 400804c8 <_init_end+0xc8> (3ffe6630 <z_main_stack>)
40081186:	3159      	s32i.n	a5, a1, 12
40081188:	150c      	movi.n	a5, 1
4008118a:	11c550        	slli	a12, a5, 11
4008118d:	03fd      	mov.n	a15, a3
4008118f:	03ed      	mov.n	a14, a3
40081191:	2159      	s32i.n	a5, a1, 8
40081193:	1139      	s32i.n	a3, a1, 4
40081195:	0139      	s32i.n	a3, a1, 0
40081197:	04ad      	mov.n	a10, a4
40081199:	001025        	call8	4008129c <z_setup_new_thread>
4008119c:	0d0482        	l8ui	a8, a4, 13
4008119f:	b57c      	movi.n	a5, -5
400811a1:	108850        	and	a8, a8, a5
400811a4:	20a440        	or	a10, a4, a4
400811a7:	0d4482        	s8i	a8, a4, 13
400811aa:	0051e5        	call8	400816c8 <z_ready_thread>
400811ad:	03ad      	mov.n	a10, a3
400811af:	fff2a5        	call8	400810d8 <z_init_cpu>
400811b2:	006350        	rsil	a5, 3
400811b5:	2248      	l32i.n	a4, a2, 8
400811b7:	537c      	movi.n	a3, -11
400811b9:	116432        	s32i	a3, a4, 68
400811bc:	006330        	rsil	a3, 3
400811bf:	006ce5        	call8	4008188c <z_swap_next_thread>
400811c2:	0a3d      	mov.n	a3, a10
400811c4:	0d14a7        	beq	a4, a10, 400811d5 <z_cstart+0x91>
400811c7:	22a9      	s32i.n	a10, a2, 8
400811c9:	0022e5        	call8	400813f8 <z_reset_time_slice>
400811cc:	1223a2        	l32i	a10, a3, 72
400811cf:	48c4b2        	addi	a11, a4, 72
400811d2:	ff78e5        	call8	40080960 <xtensa_switch>
400811d5:	13e650        	wsr.ps	a5
400811d8:	002010        	rsync
	...

400811dc <k_heap_init>:
400811dc:	004136        	entry	a1, 32
400811df:	0cc282        	addi	a8, a2, 12
400811e2:	20a220        	or	a10, a2, a2
400811e5:	036282        	s32i	a8, a2, 12
400811e8:	4289      	s32i.n	a8, a2, 16
400811ea:	04cd      	mov.n	a12, a4
400811ec:	03bd      	mov.n	a11, a3
400811ee:	4f49e5        	call8	400d068c <sys_heap_init>
400811f1:	f01d      	retw.n
	...

400811f4 <statics_init>:
400811f4:	004136        	entry	a1, 32
400811f7:	fcb621        	l32r	a2, 400804d0 <_init_end+0xd0> (3ffb0290 <_internal_heap_1>)
400811fa:	000386        	j	4008120c <statics_init+0x18>
400811fd:	0222c2        	l32i	a12, a2, 8
40081200:	0122b2        	l32i	a11, a2, 4
40081203:	20a220        	or	a10, a2, a2
40081206:	fffd65        	call8	400811dc <k_heap_init>
40081209:	14c222        	addi	a2, a2, 20
4008120c:	fcb231        	l32r	a3, 400804d4 <_init_end+0xd4> (3ffb02b8 <log_const_cbprintf_package>)
4008120f:	ea3237        	bltu	a2, a3, 400811fd <statics_init+0x9>
40081212:	020c      	movi.n	a2, 0
40081214:	f01d      	retw.n
	...

40081218 <k_heap_aligned_alloc>:
40081218:	006136        	entry	a1, 48
4008121b:	20a660        	or	a10, a6, a6
4008121e:	20b770        	or	a11, a7, a7
40081221:	00b625        	call8	40081d84 <sys_timepoint_calc>
40081224:	14c252        	addi	a5, a2, 20
40081227:	0261a2        	s32i	a10, a1, 8
4008122a:	31b9      	s32i.n	a11, a1, 12
4008122c:	0159      	s32i.n	a5, a1, 0
4008122e:	006350        	rsil	a5, 3
40081231:	82cb      	addi.n	a8, a2, 12
40081233:	1189      	s32i.n	a8, a1, 4
40081235:	000886        	j	4008125b <k_heap_aligned_alloc+0x43>
40081238:	00          	.byte 00
40081239:	207670        	or	a7, a6, a7
4008123c:	028716        	beqz	a7, 40081268 <k_heap_aligned_alloc+0x50>
4008123f:	21a8      	l32i.n	a10, a1, 8
40081241:	31b8      	l32i.n	a11, a1, 12
40081243:	00b8e5        	call8	40081dd0 <sys_timepoint_timeout>
40081246:	0aed      	mov.n	a14, a10
40081248:	11c8      	l32i.n	a12, a1, 4
4008124a:	0a6d      	mov.n	a6, a10
4008124c:	01a8      	l32i.n	a10, a1, 0
4008124e:	0bfd      	mov.n	a15, a11
40081250:	0b7d      	mov.n	a7, a11
40081252:	20b550        	or	a11, a5, a5
40081255:	004d25        	call8	40081728 <z_pend_curr>
40081258:	006350        	rsil	a5, 3
4008125b:	04cd      	mov.n	a12, a4
4008125d:	03bd      	mov.n	a11, a3
4008125f:	20a220        	or	a10, a2, a2
40081262:	4f3665        	call8	400d05c8 <sys_heap_aligned_alloc>
40081265:	fd0a16        	beqz	a10, 40081239 <k_heap_aligned_alloc+0x21>
40081268:	13e650        	wsr.ps	a5
4008126b:	002010        	rsync
4008126e:	0a2d      	mov.n	a2, a10
40081270:	f01d      	retw.n
	...

40081274 <k_heap_free>:
40081274:	004136        	entry	a1, 32
40081277:	20b330        	or	a11, a3, a3
4008127a:	006340        	rsil	a4, 3
4008127d:	02ad      	mov.n	a10, a2
4008127f:	4f2ce5        	call8	400d054c <sys_heap_free>
40081282:	a2cb      	addi.n	a10, a2, 12
40081284:	006265        	call8	400818ac <z_unpend_all>
40081287:	9a8c      	beqz.n	a10, 40081294 <k_heap_free+0x20>
40081289:	04bd      	mov.n	a11, a4
4008128b:	14c2a2        	addi	a10, a2, 20
4008128e:	004da5        	call8	40081768 <z_reschedule>
40081291:	000146        	j	4008129a <k_heap_free+0x26>
40081294:	13e640        	wsr.ps	a4
40081297:	002010        	rsync
4008129a:	f01d      	retw.n

4008129c <z_setup_new_thread>:
4008129c:	006136        	entry	a1, 48
4008129f:	38c282        	addi	a8, a2, 56
400812a2:	e289      	s32i.n	a8, a2, 56
400812a4:	f289      	s32i.n	a8, a2, 60
400812a6:	e188      	l32i.n	a8, a1, 56
400812a8:	44fb      	addi.n	a4, a4, 15
400812aa:	0c4282        	s8i	a8, a2, 12
400812ad:	480c      	movi.n	a8, 4
400812af:	0d4282        	s8i	a8, a2, 13
400812b2:	d188      	l32i.n	a8, a1, 52
400812b4:	07fd      	mov.n	a15, a7
400812b6:	0e4282        	s8i	a8, a2, 14
400812b9:	087c      	movi.n	a8, -16
400812bb:	070c      	movi.n	a7, 0
400812bd:	104480        	and	a4, a4, a8
400812c0:	c188      	l32i.n	a8, a1, 48
400812c2:	2279      	s32i.n	a7, a2, 8
400812c4:	0f4272        	s8i	a7, a2, 15
400812c7:	6279      	s32i.n	a7, a2, 24
400812c9:	7279      	s32i.n	a7, a2, 28
400812cb:	434a      	add.n	a4, a3, a4
400812cd:	02ad      	mov.n	a10, a2
400812cf:	03bd      	mov.n	a11, a3
400812d1:	0189      	s32i.n	a8, a1, 0
400812d3:	06ed      	mov.n	a14, a6
400812d5:	05dd      	mov.n	a13, a5
400812d7:	04cd      	mov.n	a12, a4
400812d9:	ff7fa5        	call8	40080ad4 <arch_new_thread>
400812dc:	d279      	s32i.n	a7, a2, 52
400812de:	fc4a71        	l32r	a7, 40080408 <_init_end+0x8> (3ffb15ac <_kernel>)
400812e1:	2778      	l32i.n	a7, a7, 8
400812e3:	132772        	l32i	a7, a7, 76
400812e6:	136272        	s32i	a7, a2, 76
400812e9:	042d      	mov.n	a2, a4
400812eb:	f01d      	retw.n
400812ed:	000000        	ill

400812f0 <z_init_static_threads>:
400812f0:	006136        	entry	a1, 48
400812f3:	fc7921        	l32r	a2, 400804d8 <_init_end+0xd8> (3f400eac <_k_thread_data_thread0_id>)
400812f6:	fc7931        	l32r	a3, 400804dc <_init_end+0xdc> (3f400f04 <__device_deps_end>)
400812f9:	024d      	mov.n	a4, a2
400812fb:	0009c6        	j	40081326 <z_init_static_threads+0x36>
400812fe:	0a2282        	l32i	a8, a2, 40
40081301:	036182        	s32i	a8, a1, 12
40081304:	8288      	l32i.n	a8, a2, 32
40081306:	2189      	s32i.n	a8, a1, 8
40081308:	7288      	l32i.n	a8, a2, 28
4008130a:	1189      	s32i.n	a8, a1, 4
4008130c:	6288      	l32i.n	a8, a2, 24
4008130e:	0189      	s32i.n	a8, a1, 0
40081310:	52f8      	l32i.n	a15, a2, 20
40081312:	42e8      	l32i.n	a14, a2, 16
40081314:	32d8      	l32i.n	a13, a2, 12
40081316:	22c8      	l32i.n	a12, a2, 8
40081318:	12b8      	l32i.n	a11, a2, 4
4008131a:	02a8      	l32i.n	a10, a2, 0
4008131c:	fff7e5        	call8	4008129c <z_setup_new_thread>
4008131f:	0288      	l32i.n	a8, a2, 0
40081321:	d829      	s32i.n	a2, a8, 52
40081323:	2cc222        	addi	a2, a2, 44
40081326:	d43237        	bltu	a2, a3, 400812fe <z_init_static_threads+0xe>
40081329:	042d      	mov.n	a2, a4
4008132b:	0051e5        	call8	40081848 <k_sched_lock>
4008132e:	040c      	movi.n	a4, 0
40081330:	000b06        	j	40081360 <z_init_static_threads+0x70>
40081333:	00          	.byte 00
40081334:	0922d2        	l32i	a13, a2, 36
40081337:	220d26        	beqi	a13, -1, 4008135d <z_init_static_threads+0x6d>
4008133a:	0aa082        	movi	a8, 10
4008133d:	53dd40        	max	a13, a13, a4
40081340:	82cd80        	mull	a12, a13, a8
40081343:	b2dd80        	mulsh	a13, a13, a8
40081346:	0022a2        	l32i	a10, a2, 0
40081349:	208cd0        	or	a8, a12, a13
4008134c:	48cc      	bnez.n	a8, 40081354 <z_init_static_threads+0x64>
4008134e:	004465        	call8	40081794 <z_sched_start>
40081351:	000206        	j	4008135d <z_init_static_threads+0x6d>
40081354:	fc63b1        	l32r	a11, 400804e0 <_init_end+0xe0> (40081718 <z_thread_timeout>)
40081357:	18caa2        	addi	a10, a10, 24
4008135a:	007fa5        	call8	40081b54 <z_add_timeout>
4008135d:	2cc222        	addi	a2, a2, 44
40081360:	d03237        	bltu	a2, a3, 40081334 <z_init_static_threads+0x44>
40081363:	005025        	call8	40081864 <k_sched_unlock>
40081366:	f01d      	retw.n

40081368 <idle>:
40081368:	004136        	entry	a1, 32
4008136b:	006380        	rsil	a8, 3
4008136e:	ff4de5        	call8	4008084c <arch_cpu_idle>
40081371:	fffd86        	j	4008136b <idle+0x3>

40081374 <sliceable>:
40081374:	004136        	entry	a1, 32
40081377:	071292        	l16ui	a9, a2, 14
4008137a:	7fa0a2        	movi	a10, 127
4008137d:	080c      	movi.n	a8, 0
4008137f:	313a97        	bltu	a10, a9, 400813b4 <sliceable+0x40>
40081382:	fc5881        	l32r	a8, 400804e4 <_init_end+0xe4> (3ffb15d0 <slice_ticks>)
40081385:	0888      	l32i.n	a8, a8, 0
40081387:	98ac      	beqz.n	a8, 400813b4 <sliceable+0x40>
40081389:	fc5781        	l32r	a8, 400804e8 <_init_end+0xe8> (3ffb15cc <slice_max_prio>)
4008138c:	0e0292        	l8ui	a9, a2, 14
4008138f:	08a8      	l32i.n	a10, a8, 0
40081391:	239900        	sext	a9, a9, 7
40081394:	080c      	movi.n	a8, 0
40081396:	1a29a7        	blt	a9, a10, 400813b4 <sliceable+0x40>
40081399:	0d0292        	l8ui	a9, a2, 13
4008139c:	01a0a2        	movi	a10, 1
4008139f:	449090        	extui	a9, a9, 0, 5
400813a2:	20b880        	or	a11, a8, a8
400813a5:	83ba90        	moveqz	a11, a10, a9
400813a8:	fc4291        	l32r	a9, 400804b0 <_init_end+0xb0> (3ffb1398 <z_idle_threads>)
400813ab:	c02290        	sub	a2, a2, a9
400813ae:	938a20        	movnez	a8, a10, a2
400813b1:	108b80        	and	a8, a11, a8
400813b4:	042080        	extui	a2, a8, 0, 1
400813b7:	f01d      	retw.n
400813b9:	000000        	ill

400813bc <slice_timeout>:
400813bc:	004136        	entry	a1, 32
400813bf:	fc4c81        	l32r	a8, 400804f0 <_init_end+0xf0> (3ffb1448 <slice_timeouts>)
400813c2:	fc4c91        	l32r	a9, 400804f4 <_init_end+0xf4> (aaaaaaab <_rtc_bss_end+0x5aaaaaab>)
400813c5:	c08280        	sub	a8, a2, a8
400813c8:	218380        	srai	a8, a8, 3
400813cb:	828890        	mull	a8, a8, a9
400813ce:	fc4791        	l32r	a9, 400804ec <_init_end+0xec> (3ffb15fd <slice_expired>)
400813d1:	898a      	add.n	a8, a9, a8
400813d3:	190c      	movi.n	a9, 1
400813d5:	004892        	s8i	a9, a8, 0
400813d8:	f01d      	retw.n
	...

400813dc <unpend_thread_no_timeout>:
400813dc:	004136        	entry	a1, 32
400813df:	02ad      	mov.n	a10, a2
400813e1:	00ad25        	call8	40081eb4 <sys_dlist_remove>
400813e4:	0d0282        	l8ui	a8, a2, 13
400813e7:	d97c      	movi.n	a9, -3
400813e9:	108890        	and	a8, a8, a9
400813ec:	0d4282        	s8i	a8, a2, 13
400813ef:	080c      	movi.n	a8, 0
400813f1:	2289      	s32i.n	a8, a2, 8
400813f3:	f01d      	retw.n
400813f5:	000000        	ill

400813f8 <z_reset_time_slice>:
400813f8:	004136        	entry	a1, 32
400813fb:	fc0331        	l32r	a3, 40080408 <_init_end+0x8> (3ffb15ac <_kernel>)
400813fe:	fc3c81        	l32r	a8, 400804f0 <_init_end+0xf0> (3ffb1448 <slice_timeouts>)
40081401:	100342        	l8ui	a4, a3, 16
40081404:	903440        	addx2	a3, a4, a4
40081407:	b03380        	addx8	a3, a3, a8
4008140a:	20a330        	or	a10, a3, a3
4008140d:	0084a5        	call8	40081c58 <z_abort_timeout>
40081410:	fc3781        	l32r	a8, 400804ec <_init_end+0xec> (3ffb15fd <slice_expired>)
40081413:	02ad      	mov.n	a10, a2
40081415:	884a      	add.n	a8, a8, a4
40081417:	040c      	movi.n	a4, 0
40081419:	004842        	s8i	a4, a8, 0
4008141c:	fff565        	call8	40081374 <sliceable>
4008141f:	2a9c      	beqz.n	a10, 40081435 <z_reset_time_slice+0x3d>
40081421:	fc3041        	l32r	a4, 400804e4 <_init_end+0xe4> (3ffb15d0 <slice_ticks>)
40081424:	fc35b1        	l32r	a11, 400804f8 <_init_end+0xf8> (400813bc <slice_timeout>)
40081427:	04d8      	l32i.n	a13, a4, 0
40081429:	03ad      	mov.n	a10, a3
4008142b:	dd0b      	addi.n	a13, a13, -1
4008142d:	0dcd      	mov.n	a12, a13
4008142f:	31dfd0        	srai	a13, a13, 31
40081432:	007225        	call8	40081b54 <z_add_timeout>
40081435:	f01d      	retw.n
	...

40081438 <z_swap_irqlock>:
40081438:	004136        	entry	a1, 32
4008143b:	fbf331        	l32r	a3, 40080408 <_init_end+0x8> (3ffb15ac <_kernel>)
4008143e:	f5af42        	movi	a4, -11
40081441:	022352        	l32i	a5, a3, 8
40081444:	116542        	s32i	a4, a5, 68
40081447:	006340        	rsil	a4, 3
4008144a:	5348      	l32i.n	a4, a3, 20
4008144c:	101547        	beq	a5, a4, 40081460 <z_swap_irqlock+0x28>
4008144f:	04ad      	mov.n	a10, a4
40081451:	026342        	s32i	a4, a3, 8
40081454:	fffa25        	call8	400813f8 <z_reset_time_slice>
40081457:	1224a2        	l32i	a10, a4, 72
4008145a:	48c5b2        	addi	a11, a5, 72
4008145d:	ff5025        	call8	40080960 <xtensa_switch>
40081460:	13e620        	wsr.ps	a2
40081463:	002010        	rsync
40081466:	2338      	l32i.n	a3, a3, 8
40081468:	112322        	l32i	a2, a3, 68
4008146b:	f01d      	retw.n
4008146d:	000000        	ill

40081470 <z_swap>:
40081470:	004136        	entry	a1, 32
40081473:	fbe541        	l32r	a4, 40080408 <_init_end+0x8> (3ffb15ac <_kernel>)
40081476:	f5af82        	movi	a8, -11
40081479:	022452        	l32i	a5, a4, 8
4008147c:	116582        	s32i	a8, a5, 68
4008147f:	fc1f81        	l32r	a8, 400804fc <_init_end+0xfc> (3ffb15fe <sched_spinlock>)
40081482:	021827        	beq	a8, a2, 40081488 <z_swap+0x18>
40081485:	006320        	rsil	a2, 3
40081488:	5428      	l32i.n	a2, a4, 20
4008148a:	0f1527        	beq	a5, a2, 4008149d <z_swap+0x2d>
4008148d:	02ad      	mov.n	a10, a2
4008148f:	2429      	s32i.n	a2, a4, 8
40081491:	fff665        	call8	400813f8 <z_reset_time_slice>
40081494:	1222a2        	l32i	a10, a2, 72
40081497:	48c5b2        	addi	a11, a5, 72
4008149a:	ff4c65        	call8	40080960 <xtensa_switch>
4008149d:	13e630        	wsr.ps	a3
400814a0:	002010        	rsync
400814a3:	2428      	l32i.n	a2, a4, 8
400814a5:	112222        	l32i	a2, a2, 68
400814a8:	f01d      	retw.n
	...

400814ac <update_cache>:
400814ac:	004136        	entry	a1, 32
400814af:	fbd641        	l32r	a4, 40080408 <_init_end+0x8> (3ffb15ac <_kernel>)
400814b2:	fc13a1        	l32r	a10, 40080500 <_init_end+0x100> (3ffb15c4 <_kernel+0x18>)
400814b5:	062432        	l32i	a3, a4, 24
400814b8:	01a082        	movi	a8, 1
400814bb:	c0a3a0        	sub	a10, a3, a10
400814be:	00a092        	movi	a9, 0
400814c1:	8398a0        	moveqz	a9, a8, a10
400814c4:	74a090        	extui	a10, a9, 0, 8
400814c7:	004956        	bnez	a9, 400814cf <update_cache+0x23>
400814ca:	938a30        	movnez	a8, a10, a3
400814cd:	088c      	beqz.n	a8, 400814d1 <update_cache+0x25>
400814cf:	3438      	l32i.n	a3, a4, 12
400814d1:	2488      	l32i.n	a8, a4, 8
400814d3:	011256        	bnez	a2, 400814e8 <update_cache+0x3c>
400814d6:	0d0892        	l8ui	a9, a8, 13
400814d9:	449090        	extui	a9, a9, 0, 5
400814dc:	008956        	bnez	a9, 400814e8 <update_cache+0x3c>
400814df:	071892        	l16ui	a9, a8, 14
400814e2:	7fa0a2        	movi	a10, 127
400814e5:	093a97        	bltu	a10, a9, 400814f2 <update_cache+0x46>
400814e8:	041837        	beq	a8, a3, 400814f0 <update_cache+0x44>
400814eb:	03ad      	mov.n	a10, a3
400814ed:	fff0a5        	call8	400813f8 <z_reset_time_slice>
400814f0:	038d      	mov.n	a8, a3
400814f2:	5489      	s32i.n	a8, a4, 20
400814f4:	f01d      	retw.n
	...

400814f8 <move_thread_to_end_of_prio_q>:
400814f8:	004136        	entry	a1, 32
400814fb:	0d0282        	l8ui	a8, a2, 13
400814fe:	239800        	sext	a9, a8, 7
40081501:	00a9d6        	bgez	a9, 4008150f <move_thread_to_end_of_prio_q+0x17>
40081504:	648080        	extui	a8, a8, 0, 7
40081507:	0d4282        	s8i	a8, a2, 13
4008150a:	02ad      	mov.n	a10, a2
4008150c:	009a65        	call8	40081eb4 <sys_dlist_remove>
4008150f:	0d0282        	l8ui	a8, a2, 13
40081512:	80af92        	movi	a9, -128
40081515:	208890        	or	a8, a8, a9
40081518:	fbbc91        	l32r	a9, 40080408 <_init_end+0x8> (3ffb15ac <_kernel>)
4008151b:	0d4282        	s8i	a8, a2, 13
4008151e:	6988      	l32i.n	a8, a9, 24
40081520:	fbf8d1        	l32r	a13, 40080500 <_init_end+0x100> (3ffb15c4 <_kernel+0x18>)
40081523:	0198d7        	bne	a8, a13, 40081528 <move_thread_to_end_of_prio_q+0x30>
40081526:	080c      	movi.n	a8, 0
40081528:	79c8      	l32i.n	a12, a9, 28
4008152a:	000906        	j	40081552 <move_thread_to_end_of_prio_q+0x5a>
4008152d:	0e02b2        	l8ui	a11, a2, 14
40081530:	0e08a2        	l8ui	a10, a8, 14
40081533:	23bb00        	sext	a11, a11, 7
40081536:	23aa00        	sext	a10, a10, 7
40081539:	0f1ba7        	beq	a11, a10, 4008154c <move_thread_to_end_of_prio_q+0x54>
4008153c:	0caba7        	bge	a11, a10, 4008154c <move_thread_to_end_of_prio_q+0x54>
4008153f:	18a8      	l32i.n	a10, a8, 4
40081541:	0289      	s32i.n	a8, a2, 0
40081543:	12a9      	s32i.n	a10, a2, 4
40081545:	0a29      	s32i.n	a2, a10, 0
40081547:	1829      	s32i.n	a2, a8, 4
40081549:	000486        	j	4008155f <move_thread_to_end_of_prio_q+0x67>
4008154c:	051c87        	beq	a12, a8, 40081555 <move_thread_to_end_of_prio_q+0x5d>
4008154f:	002882        	l32i	a8, a8, 0
40081552:	fd7856        	bnez	a8, 4008152d <move_thread_to_end_of_prio_q+0x35>
40081555:	0062d2        	s32i	a13, a2, 0
40081558:	0162c2        	s32i	a12, a2, 4
4008155b:	0c29      	s32i.n	a2, a12, 0
4008155d:	7929      	s32i.n	a2, a9, 28
4008155f:	2988      	l32i.n	a8, a9, 8
40081561:	1a0c      	movi.n	a10, 1
40081563:	c02820        	sub	a2, a8, a2
40081566:	080c      	movi.n	a8, 0
40081568:	93a820        	movnez	a10, a8, a2
4008156b:	fff425        	call8	400814ac <update_cache>
4008156e:	f01d      	retw.n

40081570 <ready_thread>:
40081570:	004136        	entry	a1, 32
40081573:	0d0292        	l8ui	a9, a2, 13
40081576:	238900        	sext	a8, a9, 7
40081579:	05f896        	bltz	a8, 400815dc <ready_thread+0x6c>
4008157c:	448090        	extui	a8, a9, 0, 5
4008157f:	059856        	bnez	a8, 400815dc <ready_thread+0x6c>
40081582:	6288      	l32i.n	a8, a2, 24
40081584:	054856        	bnez	a8, 400815dc <ready_thread+0x6c>
40081587:	80afa2        	movi	a10, -128
4008158a:	2099a0        	or	a9, a9, a10
4008158d:	fb9eb1        	l32r	a11, 40080408 <_init_end+0x8> (3ffb15ac <_kernel>)
40081590:	0d4292        	s8i	a9, a2, 13
40081593:	6b98      	l32i.n	a9, a11, 24
40081595:	fbdad1        	l32r	a13, 40080500 <_init_end+0x100> (3ffb15c4 <_kernel+0x18>)
40081598:	7bc8      	l32i.n	a12, a11, 28
4008159a:	c0a9d0        	sub	a10, a9, a13
4008159d:	9389a0        	movnez	a8, a9, a10
400815a0:	000986        	j	400815ca <ready_thread+0x5a>
400815a3:	00          	.byte 00
400815a4:	0e02a2        	l8ui	a10, a2, 14
400815a7:	0e0892        	l8ui	a9, a8, 14
400815aa:	23aa00        	sext	a10, a10, 7
400815ad:	239900        	sext	a9, a9, 7
400815b0:	101a97        	beq	a10, a9, 400815c4 <ready_thread+0x54>
400815b3:	0daa97        	bge	a10, a9, 400815c4 <ready_thread+0x54>
400815b6:	1898      	l32i.n	a9, a8, 4
400815b8:	0289      	s32i.n	a8, a2, 0
400815ba:	1299      	s32i.n	a9, a2, 4
400815bc:	0929      	s32i.n	a2, a9, 0
400815be:	1829      	s32i.n	a2, a8, 4
400815c0:	0004c6        	j	400815d7 <ready_thread+0x67>
400815c3:	00          	.byte 00
400815c4:	0518c7        	beq	a8, a12, 400815cd <ready_thread+0x5d>
400815c7:	002882        	l32i	a8, a8, 0
400815ca:	fd6856        	bnez	a8, 400815a4 <ready_thread+0x34>
400815cd:	0062d2        	s32i	a13, a2, 0
400815d0:	0162c2        	s32i	a12, a2, 4
400815d3:	0c29      	s32i.n	a2, a12, 0
400815d5:	7b29      	s32i.n	a2, a11, 28
400815d7:	0a0c      	movi.n	a10, 0
400815d9:	ffed25        	call8	400814ac <update_cache>
400815dc:	f01d      	retw.n
	...

400815e0 <unready_thread>:
400815e0:	004136        	entry	a1, 32
400815e3:	0d0282        	l8ui	a8, a2, 13
400815e6:	239800        	sext	a9, a8, 7
400815e9:	00b9d6        	bgez	a9, 400815f8 <unready_thread+0x18>
400815ec:	648080        	extui	a8, a8, 0, 7
400815ef:	0d4282        	s8i	a8, a2, 13
400815f2:	20a220        	or	a10, a2, a2
400815f5:	008be5        	call8	40081eb4 <sys_dlist_remove>
400815f8:	fb8481        	l32r	a8, 40080408 <_init_end+0x8> (3ffb15ac <_kernel>)
400815fb:	01a0a2        	movi	a10, 1
400815fe:	2888      	l32i.n	a8, a8, 8
40081600:	c02820        	sub	a2, a8, a2
40081603:	00a082        	movi	a8, 0
40081606:	93a820        	movnez	a10, a8, a2
40081609:	ffea25        	call8	400814ac <update_cache>
4008160c:	f01d      	retw.n
	...

40081610 <add_to_waitq_locked>:
40081610:	004136        	entry	a1, 32
40081613:	02ad      	mov.n	a10, a2
40081615:	fffca5        	call8	400815e0 <unready_thread>
40081618:	0d0282        	l8ui	a8, a2, 13
4008161b:	290c      	movi.n	a9, 2
4008161d:	208890        	or	a8, a8, a9
40081620:	0d4282        	s8i	a8, a2, 13
40081623:	f3bc      	beqz.n	a3, 40081666 <add_to_waitq_locked+0x56>
40081625:	2239      	s32i.n	a3, a2, 8
40081627:	0388      	l32i.n	a8, a3, 0
40081629:	2c9387        	bne	a3, a8, 40081659 <add_to_waitq_locked+0x49>
4008162c:	000b06        	j	4008165c <add_to_waitq_locked+0x4c>
4008162f:	00          	.byte 00
40081630:	0e02a2        	l8ui	a10, a2, 14
40081633:	0e0892        	l8ui	a9, a8, 14
40081636:	23aa00        	sext	a10, a10, 7
40081639:	239900        	sext	a9, a9, 7
4008163c:	121a97        	beq	a10, a9, 40081652 <add_to_waitq_locked+0x42>
4008163f:	0faa97        	bge	a10, a9, 40081652 <add_to_waitq_locked+0x42>
40081642:	1838      	l32i.n	a3, a8, 4
40081644:	0289      	s32i.n	a8, a2, 0
40081646:	1239      	s32i.n	a3, a2, 4
40081648:	0329      	s32i.n	a2, a3, 0
4008164a:	1829      	s32i.n	a2, a8, 4
4008164c:	000586        	j	40081666 <add_to_waitq_locked+0x56>
4008164f:	00          	.byte 00
40081650:	00          	.byte 00
40081651:	00          	.byte 00
40081652:	1398      	l32i.n	a9, a3, 4
40081654:	041897        	beq	a8, a9, 4008165c <add_to_waitq_locked+0x4c>
40081657:	0888      	l32i.n	a8, a8, 0
40081659:	fd3856        	bnez	a8, 40081630 <add_to_waitq_locked+0x20>
4008165c:	1388      	l32i.n	a8, a3, 4
4008165e:	0239      	s32i.n	a3, a2, 0
40081660:	1289      	s32i.n	a8, a2, 4
40081662:	0829      	s32i.n	a2, a8, 0
40081664:	1329      	s32i.n	a2, a3, 4
40081666:	f01d      	retw.n

40081668 <pend_locked>:
40081668:	004136        	entry	a1, 32
4008166b:	20b330        	or	a11, a3, a3
4008166e:	20a220        	or	a10, a2, a2
40081671:	fff9e5        	call8	40081610 <add_to_waitq_locked>
40081674:	020466        	bnei	a4, -1, 4008167a <pend_locked+0x12>
40081677:	0d0526        	beqi	a5, -1, 40081688 <pend_locked+0x20>
4008167a:	fb99b1        	l32r	a11, 400804e0 <_init_end+0xe0> (40081718 <z_thread_timeout>)
4008167d:	04cd      	mov.n	a12, a4
4008167f:	20d550        	or	a13, a5, a5
40081682:	18c2a2        	addi	a10, a2, 24
40081685:	004ce5        	call8	40081b54 <z_add_timeout>
40081688:	f01d      	retw.n
	...

4008168c <z_time_slice>:
4008168c:	004136        	entry	a1, 32
4008168f:	006330        	rsil	a3, 3
40081692:	fb5d81        	l32r	a8, 40080408 <_init_end+0x8> (3ffb15ac <_kernel>)
40081695:	fb9521        	l32r	a2, 400804ec <_init_end+0xec> (3ffb15fd <slice_expired>)
40081698:	100892        	l8ui	a9, a8, 16
4008169b:	802290        	add	a2, a2, a9
4008169e:	000222        	l8ui	a2, a2, 0
400816a1:	01a216        	beqz	a2, 400816bf <z_time_slice+0x33>
400816a4:	2828      	l32i.n	a2, a8, 8
400816a6:	02ad      	mov.n	a10, a2
400816a8:	ffcca5        	call8	40081374 <sliceable>
400816ab:	0a9c      	beqz.n	a10, 400816bf <z_time_slice+0x33>
400816ad:	0d0282        	l8ui	a8, a2, 13
400816b0:	448080        	extui	a8, a8, 0, 5
400816b3:	38cc      	bnez.n	a8, 400816ba <z_time_slice+0x2e>
400816b5:	02ad      	mov.n	a10, a2
400816b7:	ffe425        	call8	400814f8 <move_thread_to_end_of_prio_q>
400816ba:	02ad      	mov.n	a10, a2
400816bc:	ffd3a5        	call8	400813f8 <z_reset_time_slice>
400816bf:	13e630        	wsr.ps	a3
400816c2:	002010        	rsync
400816c5:	f01d      	retw.n
	...

400816c8 <z_ready_thread>:
400816c8:	004136        	entry	a1, 32
400816cb:	02ad      	mov.n	a10, a2
400816cd:	006330        	rsil	a3, 3
400816d0:	ffe9e5        	call8	40081570 <ready_thread>
400816d3:	13e630        	wsr.ps	a3
400816d6:	002010        	rsync
400816d9:	f01d      	retw.n
	...

400816dc <z_sched_wake_thread>:
400816dc:	004136        	entry	a1, 32
400816df:	743030        	extui	a3, a3, 0, 8
400816e2:	006340        	rsil	a4, 3
400816e5:	0d0282        	l8ui	a8, a2, 13
400816e8:	892c      	movi.n	a9, 40
400816ea:	1f8987        	bany	a9, a8, 4008170d <z_sched_wake_thread+0x31>
400816ed:	2288      	l32i.n	a8, a2, 8
400816ef:	388c      	beqz.n	a8, 400816f6 <z_sched_wake_thread+0x1a>
400816f1:	02ad      	mov.n	a10, a2
400816f3:	ffcea5        	call8	400813dc <unpend_thread_no_timeout>
400816f6:	0d0292        	l8ui	a9, a2, 13
400816f9:	b86c      	movi.n	a8, -21
400816fb:	108980        	and	a8, a9, a8
400816fe:	33cc      	bnez.n	a3, 40081705 <z_sched_wake_thread+0x29>
40081700:	b87c      	movi.n	a8, -5
40081702:	108980        	and	a8, a9, a8
40081705:	0d4282        	s8i	a8, a2, 13
40081708:	02ad      	mov.n	a10, a2
4008170a:	ffe665        	call8	40081570 <ready_thread>
4008170d:	13e640        	wsr.ps	a4
40081710:	002010        	rsync
40081713:	f01d      	retw.n
40081715:	000000        	ill

40081718 <z_thread_timeout>:
40081718:	004136        	entry	a1, 32
4008171b:	1b0c      	movi.n	a11, 1
4008171d:	e8c2a2        	addi	a10, a2, -24
40081720:	fffba5        	call8	400816dc <z_sched_wake_thread>
40081723:	f01d      	retw.n
40081725:	000000        	ill

40081728 <z_pend_curr>:
40081728:	004136        	entry	a1, 32
4008172b:	07dd      	mov.n	a13, a7
4008172d:	06cd      	mov.n	a12, a6
4008172f:	04bd      	mov.n	a11, a4
40081731:	006380        	rsil	a8, 3
40081734:	fb3581        	l32r	a8, 40080408 <_init_end+0x8> (3ffb15ac <_kernel>)
40081737:	28a8      	l32i.n	a10, a8, 8
40081739:	fff2e5        	call8	40081668 <pend_locked>
4008173c:	fb70a1        	l32r	a10, 400804fc <_init_end+0xfc> (3ffb15fe <sched_spinlock>)
4008173f:	03bd      	mov.n	a11, a3
40081741:	ffd2e5        	call8	40081470 <z_swap>
40081744:	0a2d      	mov.n	a2, a10
40081746:	f01d      	retw.n

40081748 <z_unpend_thread>:
40081748:	004136        	entry	a1, 32
4008174b:	006330        	rsil	a3, 3
4008174e:	2288      	l32i.n	a8, a2, 8
40081750:	004816        	beqz	a8, 40081758 <z_unpend_thread+0x10>
40081753:	02ad      	mov.n	a10, a2
40081755:	ffc865        	call8	400813dc <unpend_thread_no_timeout>
40081758:	13e630        	wsr.ps	a3
4008175b:	002010        	rsync
4008175e:	18c2a2        	addi	a10, a2, 24
40081761:	004f65        	call8	40081c58 <z_abort_timeout>
40081764:	f01d      	retw.n
	...

40081768 <z_reschedule>:
40081768:	004136        	entry	a1, 32
4008176b:	348030        	extui	a8, a3, 0, 4
4008176e:	02ad      	mov.n	a10, a2
40081770:	03bd      	mov.n	a11, a3
40081772:	68dc      	bnez.n	a8, 4008178c <z_reschedule+0x24>
40081774:	03f580        	rsr.misc1	a8
40081777:	0888      	l32i.n	a8, a8, 0
40081779:	f8cc      	bnez.n	a8, 4008178c <z_reschedule+0x24>
4008177b:	fb2381        	l32r	a8, 40080408 <_init_end+0x8> (3ffb15ac <_kernel>)
4008177e:	5898      	l32i.n	a9, a8, 20
40081780:	2888      	l32i.n	a8, a8, 8
40081782:	061987        	beq	a9, a8, 4008178c <z_reschedule+0x24>
40081785:	ffcea5        	call8	40081470 <z_swap>
40081788:	000186        	j	40081792 <z_reschedule+0x2a>
4008178b:	00          	.byte 00
4008178c:	13e6b0        	wsr.ps	a11
4008178f:	002010        	rsync
40081792:	f01d      	retw.n

40081794 <z_sched_start>:
40081794:	004136        	entry	a1, 32
40081797:	02ad      	mov.n	a10, a2
40081799:	006320        	rsil	a2, 3
4008179c:	0d0a82        	l8ui	a8, a10, 13
4008179f:	0be827        	bbsi	a8, 2, 400817ae <z_sched_start+0x1a>
400817a2:	13e620        	wsr.ps	a2
400817a5:	002010        	rsync
400817a8:	0005c6        	j	400817c3 <z_sched_start+0x2f>
400817ab:	00          	.byte 00
400817ac:	00          	.byte 00
400817ad:	00          	.byte 00
400817ae:	fbaf92        	movi	a9, -5
400817b1:	108890        	and	a8, a8, a9
400817b4:	0d4a82        	s8i	a8, a10, 13
400817b7:	ffdba5        	call8	40081570 <ready_thread>
400817ba:	fb50a1        	l32r	a10, 400804fc <_init_end+0xfc> (3ffb15fe <sched_spinlock>)
400817bd:	20b220        	or	a11, a2, a2
400817c0:	fffa65        	call8	40081768 <z_reschedule>
400817c3:	000090        	retw
	...

400817c8 <z_reschedule_irqlock>:
400817c8:	004136        	entry	a1, 32
400817cb:	348020        	extui	a8, a2, 0, 4
400817ce:	20a220        	or	a10, a2, a2
400817d1:	00f856        	bnez	a8, 400817e4 <z_reschedule_irqlock+0x1c>
400817d4:	03f580        	rsr.misc1	a8
400817d7:	002882        	l32i	a8, a8, 0
400817da:	006856        	bnez	a8, 400817e4 <z_reschedule_irqlock+0x1c>
400817dd:	ffc5a5        	call8	40081438 <z_swap_irqlock>
400817e0:	000186        	j	400817ea <z_reschedule_irqlock+0x22>
400817e3:	00          	.byte 00
400817e4:	13e6a0        	wsr.ps	a10
400817e7:	002010        	rsync
400817ea:	f01d      	retw.n

400817ec <z_reschedule_unlocked>:
400817ec:	004136        	entry	a1, 32
400817ef:	0063a0        	rsil	a10, 3
400817f2:	fffd65        	call8	400817c8 <z_reschedule_irqlock>
400817f5:	f01d      	retw.n
	...

400817f8 <z_impl_k_thread_suspend>:
400817f8:	004136        	entry	a1, 32
400817fb:	18c2a2        	addi	a10, a2, 24
400817fe:	0045a5        	call8	40081c58 <z_abort_timeout>
40081801:	006330        	rsil	a3, 3
40081804:	0d0282        	l8ui	a8, a2, 13
40081807:	234800        	sext	a4, a8, 7
4008180a:	00a4d6        	bgez	a4, 40081818 <z_impl_k_thread_suspend+0x20>
4008180d:	648080        	extui	a8, a8, 0, 7
40081810:	0d4282        	s8i	a8, a2, 13
40081813:	02ad      	mov.n	a10, a2
40081815:	0069e5        	call8	40081eb4 <sys_dlist_remove>
40081818:	0d0282        	l8ui	a8, a2, 13
4008181b:	041c      	movi.n	a4, 16
4008181d:	208840        	or	a8, a8, a4
40081820:	fafa41        	l32r	a4, 40080408 <_init_end+0x8> (3ffb15ac <_kernel>)
40081823:	0d4282        	s8i	a8, a2, 13
40081826:	022482        	l32i	a8, a4, 8
40081829:	090c      	movi.n	a9, 0
4008182b:	c08820        	sub	a8, a8, a2
4008182e:	01a0a2        	movi	a10, 1
40081831:	93a980        	movnez	a10, a9, a8
40081834:	ffc765        	call8	400814ac <update_cache>
40081837:	13e630        	wsr.ps	a3
4008183a:	002010        	rsync
4008183d:	2438      	l32i.n	a3, a4, 8
4008183f:	029327        	bne	a3, a2, 40081845 <z_impl_k_thread_suspend+0x4d>
40081842:	fffaa5        	call8	400817ec <z_reschedule_unlocked>
40081845:	f01d      	retw.n
	...

40081848 <k_sched_lock>:
40081848:	004136        	entry	a1, 32
4008184b:	0063a0        	rsil	a10, 3
4008184e:	faee81        	l32r	a8, 40080408 <_init_end+0x8> (3ffb15ac <_kernel>)
40081851:	2898      	l32i.n	a9, a8, 8
40081853:	0f0982        	l8ui	a8, a9, 15
40081856:	880b      	addi.n	a8, a8, -1
40081858:	0f4982        	s8i	a8, a9, 15
4008185b:	13e6a0        	wsr.ps	a10
4008185e:	002010        	rsync
40081861:	f01d      	retw.n
	...

40081864 <k_sched_unlock>:
40081864:	004136        	entry	a1, 32
40081867:	006320        	rsil	a2, 3
4008186a:	fae781        	l32r	a8, 40080408 <_init_end+0x8> (3ffb15ac <_kernel>)
4008186d:	00a0a2        	movi	a10, 0
40081870:	022892        	l32i	a9, a8, 8
40081873:	0f0982        	l8ui	a8, a9, 15
40081876:	01c882        	addi	a8, a8, 1
40081879:	0f4982        	s8i	a8, a9, 15
4008187c:	ffc2e5        	call8	400814ac <update_cache>
4008187f:	13e620        	wsr.ps	a2
40081882:	002010        	rsync
40081885:	fff665        	call8	400817ec <z_reschedule_unlocked>
40081888:	f01d      	retw.n
	...

4008188c <z_swap_next_thread>:
4008188c:	004136        	entry	a1, 32
4008188f:	fade81        	l32r	a8, 40080408 <_init_end+0x8> (3ffb15ac <_kernel>)
40081892:	5828      	l32i.n	a2, a8, 20
40081894:	f01d      	retw.n
	...

40081898 <z_get_next_switch_handle>:
40081898:	004136        	entry	a1, 32
4008189b:	fadb81        	l32r	a8, 40080408 <_init_end+0x8> (3ffb15ac <_kernel>)
4008189e:	28a8      	l32i.n	a10, a8, 8
400818a0:	5898      	l32i.n	a9, a8, 20
400818a2:	126a22        	s32i	a2, a10, 72
400818a5:	122922        	l32i	a2, a9, 72
400818a8:	2899      	s32i.n	a9, a8, 8
400818aa:	f01d      	retw.n

400818ac <z_unpend_all>:
400818ac:	004136        	entry	a1, 32
400818af:	080c      	movi.n	a8, 0
400818b1:	140c      	movi.n	a4, 1
400818b3:	000346        	j	400818c4 <z_unpend_all+0x18>
400818b6:	20a330        	or	a10, a3, a3
400818b9:	ffe8e5        	call8	40081748 <z_unpend_thread>
400818bc:	20a330        	or	a10, a3, a3
400818bf:	ffe0a5        	call8	400816c8 <z_ready_thread>
400818c2:	048d      	mov.n	a8, a4
400818c4:	0238      	l32i.n	a3, a2, 0
400818c6:	002316        	beqz	a3, 400818cc <z_unpend_all+0x20>
400818c9:	e99237        	bne	a2, a3, 400818b6 <z_unpend_all+0xa>
400818cc:	082d      	mov.n	a2, a8
400818ce:	f01d      	retw.n

400818d0 <z_sched_init>:
400818d0:	004136        	entry	a1, 32
400818d3:	facd81        	l32r	a8, 40080408 <_init_end+0x8> (3ffb15ac <_kernel>)
400818d6:	fb0a91        	l32r	a9, 40080500 <_init_end+0x100> (3ffb15c4 <_kernel+0x18>)
400818d9:	6899      	s32i.n	a9, a8, 24
400818db:	7899      	s32i.n	a9, a8, 28
400818dd:	f01d      	retw.n
	...

400818e0 <z_impl_k_yield>:
400818e0:	004136        	entry	a1, 32
400818e3:	006330        	rsil	a3, 3
400818e6:	fac821        	l32r	a2, 40080408 <_init_end+0x8> (3ffb15ac <_kernel>)
400818e9:	0222a2        	l32i	a10, a2, 8
400818ec:	0d0a82        	l8ui	a8, a10, 13
400818ef:	648080        	extui	a8, a8, 0, 7
400818f2:	0d4a82        	s8i	a8, a10, 13
400818f5:	005be5        	call8	40081eb4 <sys_dlist_remove>
400818f8:	022282        	l32i	a8, a2, 8
400818fb:	80afa2        	movi	a10, -128
400818fe:	0d0892        	l8ui	a9, a8, 13
40081901:	faffd1        	l32r	a13, 40080500 <_init_end+0x100> (3ffb15c4 <_kernel+0x18>)
40081904:	2099a0        	or	a9, a9, a10
40081907:	0d4892        	s8i	a9, a8, 13
4008190a:	062292        	l32i	a9, a2, 24
4008190d:	0199d7        	bne	a9, a13, 40081912 <z_impl_k_yield+0x32>
40081910:	090c      	movi.n	a9, 0
40081912:	72c8      	l32i.n	a12, a2, 28
40081914:	000986        	j	4008193e <z_impl_k_yield+0x5e>
40081917:	00          	.byte 00
40081918:	0e08b2        	l8ui	a11, a8, 14
4008191b:	0e09a2        	l8ui	a10, a9, 14
4008191e:	23bb00        	sext	a11, a11, 7
40081921:	23aa00        	sext	a10, a10, 7
40081924:	101ba7        	beq	a11, a10, 40081938 <z_impl_k_yield+0x58>
40081927:	0daba7        	bge	a11, a10, 40081938 <z_impl_k_yield+0x58>
4008192a:	1928      	l32i.n	a2, a9, 4
4008192c:	0899      	s32i.n	a9, a8, 0
4008192e:	1829      	s32i.n	a2, a8, 4
40081930:	0289      	s32i.n	a8, a2, 0
40081932:	1989      	s32i.n	a8, a9, 4
40081934:	000486        	j	4008194a <z_impl_k_yield+0x6a>
40081937:	00          	.byte 00
40081938:	0519c7        	beq	a9, a12, 40081941 <z_impl_k_yield+0x61>
4008193b:	002992        	l32i	a9, a9, 0
4008193e:	fd6956        	bnez	a9, 40081918 <z_impl_k_yield+0x38>
40081941:	0068d2        	s32i	a13, a8, 0
40081944:	18c9      	s32i.n	a12, a8, 4
40081946:	0c89      	s32i.n	a8, a12, 0
40081948:	7289      	s32i.n	a8, a2, 28
4008194a:	01a0a2        	movi	a10, 1
4008194d:	ffb5e5        	call8	400814ac <update_cache>
40081950:	faeba1        	l32r	a10, 400804fc <_init_end+0xfc> (3ffb15fe <sched_spinlock>)
40081953:	03bd      	mov.n	a11, a3
40081955:	ffb1a5        	call8	40081470 <z_swap>
40081958:	f01d      	retw.n
	...

4008195c <z_tick_sleep>:
4008195c:	004136        	entry	a1, 32
4008195f:	204230        	or	a4, a2, a3
40081962:	74cc      	bnez.n	a4, 4008196d <z_tick_sleep+0x11>
40081964:	fff7a5        	call8	400818e0 <z_impl_k_yield>
40081967:	0015c6        	j	400819c2 <z_tick_sleep+0x66>
4008196a:	00          	.byte 00
4008196b:	00          	.byte 00
4008196c:	00          	.byte 00
4008196d:	1003a6        	blti	a3, -1, 40081981 <z_tick_sleep+0x25>
40081970:	040366        	bnei	a3, -1, 40081978 <z_tick_sleep+0x1c>
40081973:	e47c      	movi.n	a4, -2
40081975:	083247        	bltu	a2, a4, 40081981 <z_tick_sleep+0x25>
40081978:	003fe5        	call8	40081d78 <sys_clock_tick_get_32>
4008197b:	42aa      	add.n	a4, a2, a10
4008197d:	000146        	j	40081986 <z_tick_sleep+0x2a>
40081980:	00          	.byte 00
40081981:	e47c      	movi.n	a4, -2
40081983:	c04420        	sub	a4, a4, a2
40081986:	006350        	rsil	a5, 3
40081989:	fa9f61        	l32r	a6, 40080408 <_init_end+0x8> (3ffb15ac <_kernel>)
4008198c:	26a8      	l32i.n	a10, a6, 8
4008198e:	ffc525        	call8	400815e0 <unready_thread>
40081991:	26a8      	l32i.n	a10, a6, 8
40081993:	fad3b1        	l32r	a11, 400804e0 <_init_end+0xe0> (40081718 <z_thread_timeout>)
40081996:	02cd      	mov.n	a12, a2
40081998:	03dd      	mov.n	a13, a3
4008199a:	18caa2        	addi	a10, a10, 24
4008199d:	001b65        	call8	40081b54 <z_add_timeout>
400819a0:	2638      	l32i.n	a3, a6, 8
400819a2:	10a062        	movi	a6, 16
400819a5:	0d0322        	l8ui	a2, a3, 13
400819a8:	fad5a1        	l32r	a10, 400804fc <_init_end+0xfc> (3ffb15fe <sched_spinlock>)
400819ab:	202260        	or	a2, a2, a6
400819ae:	0d4322        	s8i	a2, a3, 13
400819b1:	20b550        	or	a11, a5, a5
400819b4:	ffaba5        	call8	40081470 <z_swap>
400819b7:	003c25        	call8	40081d78 <sys_clock_tick_get_32>
400819ba:	c024a0        	sub	a2, a4, a10
400819bd:	013427        	bltu	a4, a2, 400819c2 <z_tick_sleep+0x66>
400819c0:	02cc      	bnez.n	a2, 400819c4 <z_tick_sleep+0x68>
400819c2:	020c      	movi.n	a2, 0
400819c4:	f01d      	retw.n
	...

400819c8 <z_impl_k_sleep>:
400819c8:	004136        	entry	a1, 32
400819cb:	20a220        	or	a10, a2, a2
400819ce:	120266        	bnei	a2, -1, 400819e4 <z_impl_k_sleep+0x1c>
400819d1:	0f0366        	bnei	a3, -1, 400819e4 <z_impl_k_sleep+0x1c>
400819d4:	fa8d81        	l32r	a8, 40080408 <_init_end+0x8> (3ffb15ac <_kernel>)
400819d7:	0228a2        	l32i	a10, a8, 8
400819da:	ffe1e5        	call8	400817f8 <z_impl_k_thread_suspend>
400819dd:	20a330        	or	a10, a3, a3
400819e0:	000546        	j	400819f9 <z_impl_k_sleep+0x31>
400819e3:	00          	.byte 00
400819e4:	20b330        	or	a11, a3, a3
400819e7:	fff765        	call8	4008195c <z_tick_sleep>
400819ea:	0aa0c2        	movi	a12, 10
400819ed:	00a0d2        	movi	a13, 0
400819f0:	31bfa0        	srai	a11, a10, 31
400819f3:	faa981        	l32r	a8, 40080498 <_init_end+0x98> (4000cff8 <__udivdi3>)
400819f6:	0008e0        	callx8	a8
400819f9:	0a2d      	mov.n	a2, a10
400819fb:	f01d      	retw.n
400819fd:	000000        	ill

40081a00 <z_impl_z_current_get>:
40081a00:	004136        	entry	a1, 32
40081a03:	fa8181        	l32r	a8, 40080408 <_init_end+0x8> (3ffb15ac <_kernel>)
40081a06:	2828      	l32i.n	a2, a8, 8
40081a08:	f01d      	retw.n
	...

40081a0c <z_thread_abort>:
40081a0c:	004136        	entry	a1, 32
40081a0f:	006340        	rsil	a4, 3
40081a12:	0c0232        	l8ui	a3, a2, 12
40081a15:	0a6307        	bbci	a3, 0, 40081a23 <z_thread_abort+0x17>
40081a18:	13e640        	wsr.ps	a4
40081a1b:	002010        	rsync
40081a1e:	4a0c      	movi.n	a10, 4
40081a20:	fef365        	call8	40080958 <xtensa_arch_except>
40081a23:	0d0282        	l8ui	a8, a2, 13
40081a26:	890c      	movi.n	a9, 8
40081a28:	050897        	bnone	a8, a9, 40081a31 <z_thread_abort+0x25>
40081a2b:	001d46        	j	40081aa4 <z_thread_abort+0x98>
40081a2e:	00          	.byte 00
40081a2f:	00          	.byte 00
40081a30:	00          	.byte 00
40081a31:	dfaf32        	movi	a3, -33
40081a34:	103830        	and	a3, a8, a3
40081a37:	203390        	or	a3, a3, a9
40081a3a:	74a030        	extui	a10, a3, 0, 8
40081a3d:	05e377        	bbsi	a3, 7, 40081a46 <z_thread_abort+0x3a>
40081a40:	0d42a2        	s8i	a10, a2, 13
40081a43:	000406        	j	40081a57 <z_thread_abort+0x4b>
40081a46:	5fa032        	movi	a3, 95
40081a49:	108830        	and	a8, a8, a3
40081a4c:	208890        	or	a8, a8, a9
40081a4f:	0d4282        	s8i	a8, a2, 13
40081a52:	02ad      	mov.n	a10, a2
40081a54:	0045e5        	call8	40081eb4 <sys_dlist_remove>
40081a57:	2238      	l32i.n	a3, a2, 8
40081a59:	338c      	beqz.n	a3, 40081a60 <z_thread_abort+0x54>
40081a5b:	02ad      	mov.n	a10, a2
40081a5d:	ff97e5        	call8	400813dc <unpend_thread_no_timeout>
40081a60:	18c2a2        	addi	a10, a2, 24
40081a63:	001f65        	call8	40081c58 <z_abort_timeout>
40081a66:	000506        	j	40081a7e <z_thread_abort+0x72>
40081a69:	03ad      	mov.n	a10, a3
40081a6b:	ff9725        	call8	400813dc <unpend_thread_no_timeout>
40081a6e:	18c3a2        	addi	a10, a3, 24
40081a71:	001e65        	call8	40081c58 <z_abort_timeout>
40081a74:	080c      	movi.n	a8, 0
40081a76:	116382        	s32i	a8, a3, 68
40081a79:	03ad      	mov.n	a10, a3
40081a7b:	ffaf65        	call8	40081570 <ready_thread>
40081a7e:	e238      	l32i.n	a3, a2, 56
40081a80:	438c      	beqz.n	a3, 40081a88 <z_thread_abort+0x7c>
40081a82:	38c282        	addi	a8, a2, 56
40081a85:	e09387        	bne	a3, a8, 40081a69 <z_thread_abort+0x5d>
40081a88:	1a0c      	movi.n	a10, 1
40081a8a:	ffa225        	call8	400814ac <update_cache>
40081a8d:	fa5e31        	l32r	a3, 40080408 <_init_end+0x8> (3ffb15ac <_kernel>)
40081a90:	2338      	l32i.n	a3, a3, 8
40081a92:	0e9327        	bne	a3, a2, 40081aa4 <z_thread_abort+0x98>
40081a95:	03f520        	rsr.misc1	a2
40081a98:	0228      	l32i.n	a2, a2, 0
40081a9a:	62cc      	bnez.n	a2, 40081aa4 <z_thread_abort+0x98>
40081a9c:	fa98a1        	l32r	a10, 400804fc <_init_end+0xfc> (3ffb15fe <sched_spinlock>)
40081a9f:	04bd      	mov.n	a11, a4
40081aa1:	ff9ce5        	call8	40081470 <z_swap>
40081aa4:	13e640        	wsr.ps	a4
40081aa7:	002010        	rsync
40081aaa:	f01d      	retw.n

40081aac <z_impl_k_thread_abort>:
40081aac:	004136        	entry	a1, 32
40081aaf:	02ad      	mov.n	a10, a2
40081ab1:	fff5a5        	call8	40081a0c <z_thread_abort>
40081ab4:	f01d      	retw.n
	...

40081ab8 <elapsed>:
40081ab8:	004136        	entry	a1, 32
40081abb:	fa9281        	l32r	a8, 40080504 <_init_end+0x104> (3ffb15d4 <announce_remaining>)
40081abe:	0a0c      	movi.n	a10, 0
40081ac0:	0888      	l32i.n	a8, a8, 0
40081ac2:	0298a7        	bne	a8, a10, 40081ac8 <elapsed+0x10>
40081ac5:	005fe5        	call8	400820c4 <sys_clock_elapsed>
40081ac8:	0a2d      	mov.n	a2, a10
40081aca:	f01d      	retw.n

40081acc <next_timeout>:
40081acc:	004136        	entry	a1, 32
40081acf:	fa8f81        	l32r	a8, 4008050c <_init_end+0x10c> (3ffb0038 <timeout_list>)
40081ad2:	0828      	l32i.n	a2, a8, 0
40081ad4:	089287        	bne	a2, a8, 40081ae0 <next_timeout+0x14>
40081ad7:	fffe25        	call8	40081ab8 <elapsed>
40081ada:	000b06        	j	40081b0a <next_timeout+0x3e>
40081add:	00          	.byte 00
40081ade:	00          	.byte 00
40081adf:	00          	.byte 00
40081ae0:	fffd65        	call8	40081ab8 <elapsed>
40081ae3:	023216        	beqz	a2, 40081b0a <next_timeout+0x3e>
40081ae6:	042292        	l32i	a9, a2, 16
40081ae9:	31bfa0        	srai	a11, a10, 31
40081aec:	c0a9a0        	sub	a10, a9, a10
40081aef:	052282        	l32i	a8, a2, 20
40081af2:	120c      	movi.n	a2, 1
40081af4:	0139a7        	bltu	a9, a10, 40081af9 <next_timeout+0x2d>
40081af7:	020c      	movi.n	a2, 0
40081af9:	c088b0        	sub	a8, a8, a11
40081afc:	c08820        	sub	a8, a8, a2
40081aff:	0718e6        	bgei	a8, 1, 40081b0a <next_timeout+0x3e>
40081b02:	a8cc      	bnez.n	a8, 40081b10 <next_timeout+0x44>
40081b04:	fa8121        	l32r	a2, 40080508 <_init_end+0x108> (7fffffff <_rtc_bss_end+0x2fffffff>)
40081b07:	05b2a7        	bgeu	a2, a10, 40081b10 <next_timeout+0x44>
40081b0a:	fa7f21        	l32r	a2, 40080508 <_init_end+0x108> (7fffffff <_rtc_bss_end+0x2fffffff>)
40081b0d:	000106        	j	40081b15 <next_timeout+0x49>
40081b10:	020c      	movi.n	a2, 0
40081b12:	b32a80        	movgez	a2, a10, a8
40081b15:	f01d      	retw.n
	...

40081b18 <remove_timeout>:
40081b18:	004136        	entry	a1, 32
40081b1b:	32ac      	beqz.n	a2, 40081b42 <remove_timeout+0x2a>
40081b1d:	fa7b81        	l32r	a8, 4008050c <_init_end+0x10c> (3ffb0038 <timeout_list>)
40081b20:	1888      	l32i.n	a8, a8, 4
40081b22:	1c1287        	beq	a2, a8, 40081b42 <remove_timeout+0x2a>
40081b25:	0288      	l32i.n	a8, a2, 0
40081b27:	789c      	beqz.n	a8, 40081b42 <remove_timeout+0x2a>
40081b29:	48c8      	l32i.n	a12, a8, 16
40081b2b:	42a8      	l32i.n	a10, a2, 16
40081b2d:	58b8      	l32i.n	a11, a8, 20
40081b2f:	acaa      	add.n	a10, a12, a10
40081b31:	52d8      	l32i.n	a13, a2, 20
40081b33:	190c      	movi.n	a9, 1
40081b35:	013ac7        	bltu	a10, a12, 40081b3a <remove_timeout+0x22>
40081b38:	090c      	movi.n	a9, 0
40081b3a:	bbda      	add.n	a11, a11, a13
40081b3c:	99ba      	add.n	a9, a9, a11
40081b3e:	48a9      	s32i.n	a10, a8, 16
40081b40:	5899      	s32i.n	a9, a8, 20
40081b42:	0288      	l32i.n	a8, a2, 0
40081b44:	1298      	l32i.n	a9, a2, 4
40081b46:	0989      	s32i.n	a8, a9, 0
40081b48:	1899      	s32i.n	a9, a8, 4
40081b4a:	080c      	movi.n	a8, 0
40081b4c:	0289      	s32i.n	a8, a2, 0
40081b4e:	1289      	s32i.n	a8, a2, 4
40081b50:	f01d      	retw.n
	...

40081b54 <z_add_timeout>:
40081b54:	004136        	entry	a1, 32
40081b57:	046d      	mov.n	a6, a4
40081b59:	059d      	mov.n	a9, a5
40081b5b:	050466        	bnei	a4, -1, 40081b64 <z_add_timeout+0x10>
40081b5e:	020566        	bnei	a5, -1, 40081b64 <z_add_timeout+0x10>
40081b61:	003c46        	j	40081c56 <z_add_timeout+0x102>
40081b64:	2239      	s32i.n	a3, a2, 8
40081b66:	006330        	rsil	a3, 3
40081b69:	03f9d6        	bgez	a9, 40081bac <z_add_timeout+0x58>
40081b6c:	e87c      	movi.n	a8, -2
40081b6e:	020966        	bnei	a9, -1, 40081b74 <z_add_timeout+0x20>
40081b71:	373867        	bltu	a8, a6, 40081bac <z_add_timeout+0x58>
40081b74:	fa6761        	l32r	a6, 40080510 <_init_end+0x110> (3ffb1460 <curr_tick>)
40081b77:	0698      	l32i.n	a9, a6, 0
40081b79:	16a8      	l32i.n	a10, a6, 4
40081b7b:	c09890        	sub	a9, a8, a9
40081b7e:	160c      	movi.n	a6, 1
40081b80:	023897        	bltu	a8, a9, 40081b86 <z_add_timeout+0x32>
40081b83:	00a062        	movi	a6, 0
40081b86:	f87c      	movi.n	a8, -1
40081b88:	c088a0        	sub	a8, a8, a10
40081b8b:	c0a940        	sub	a10, a9, a4
40081b8e:	c08860        	sub	a8, a8, a6
40081b91:	140c      	movi.n	a4, 1
40081b93:	0139a7        	bltu	a9, a10, 40081b98 <z_add_timeout+0x44>
40081b96:	040c      	movi.n	a4, 0
40081b98:	c05850        	sub	a5, a8, a5
40081b9b:	c05540        	sub	a5, a5, a4
40081b9e:	2815e6        	bgei	a5, 1, 40081bca <z_add_timeout+0x76>
40081ba1:	05cc      	bnez.n	a5, 40081ba5 <z_add_timeout+0x51>
40081ba3:	3aec      	bnez.n	a10, 40081bca <z_add_timeout+0x76>
40081ba5:	1a0c      	movi.n	a10, 1
40081ba7:	050c      	movi.n	a5, 0
40081ba9:	000746        	j	40081bca <z_add_timeout+0x76>
40081bac:	fff0a5        	call8	40081ab8 <elapsed>
40081baf:	441b      	addi.n	a4, a4, 1
40081bb1:	180c      	movi.n	a8, 1
40081bb3:	013467        	bltu	a4, a6, 40081bb8 <z_add_timeout+0x64>
40081bb6:	080c      	movi.n	a8, 0
40081bb8:	316fa0        	srai	a6, a10, 31
40081bbb:	a4aa      	add.n	a10, a4, a10
40081bbd:	885a      	add.n	a8, a8, a5
40081bbf:	150c      	movi.n	a5, 1
40081bc1:	013a47        	bltu	a10, a4, 40081bc6 <z_add_timeout+0x72>
40081bc4:	050c      	movi.n	a5, 0
40081bc6:	886a      	add.n	a8, a8, a6
40081bc8:	558a      	add.n	a5, a5, a8
40081bca:	fa5041        	l32r	a4, 4008050c <_init_end+0x10c> (3ffb0038 <timeout_list>)
40081bcd:	5259      	s32i.n	a5, a2, 20
40081bcf:	0458      	l32i.n	a5, a4, 0
40081bd1:	42a9      	s32i.n	a10, a2, 16
40081bd3:	019547        	bne	a5, a4, 40081bd8 <z_add_timeout+0x84>
40081bd6:	050c      	movi.n	a5, 0
40081bd8:	14c8      	l32i.n	a12, a4, 4
40081bda:	160c      	movi.n	a6, 1
40081bdc:	0d0c      	movi.n	a13, 0
40081bde:	0014c6        	j	40081c35 <z_add_timeout+0xe1>
40081be1:	5598      	l32i.n	a9, a5, 20
40081be3:	5288      	l32i.n	a8, a2, 20
40081be5:	0425a2        	l32i	a10, a5, 16
40081be8:	0422b2        	l32i	a11, a2, 16
40081beb:	052897        	blt	a8, a9, 40081bf4 <z_add_timeout+0xa0>
40081bee:	269987        	bne	a9, a8, 40081c18 <z_add_timeout+0xc4>
40081bf1:	23bba7        	bgeu	a11, a10, 40081c18 <z_add_timeout+0xc4>
40081bf4:	c0bab0        	sub	a11, a10, a11
40081bf7:	01a062        	movi	a6, 1
40081bfa:	023ab7        	bltu	a10, a11, 40081c00 <z_add_timeout+0xac>
40081bfd:	00a062        	movi	a6, 0
40081c00:	c09980        	sub	a9, a9, a8
40081c03:	c09960        	sub	a9, a9, a6
40081c06:	1568      	l32i.n	a6, a5, 4
40081c08:	45b9      	s32i.n	a11, a5, 16
40081c0a:	5599      	s32i.n	a9, a5, 20
40081c0c:	1269      	s32i.n	a6, a2, 4
40081c0e:	0259      	s32i.n	a5, a2, 0
40081c10:	0629      	s32i.n	a2, a6, 0
40081c12:	1529      	s32i.n	a2, a5, 4
40081c14:	000a06        	j	40081c40 <z_add_timeout+0xec>
40081c17:	00          	.byte 00
40081c18:	c0aba0        	sub	a10, a11, a10
40081c1b:	20e660        	or	a14, a6, a6
40081c1e:	023ba7        	bltu	a11, a10, 40081c24 <z_add_timeout+0xd0>
40081c21:	20edd0        	or	a14, a13, a13
40081c24:	c08890        	sub	a8, a8, a9
40081c27:	c088e0        	sub	a8, a8, a14
40081c2a:	0462a2        	s32i	a10, a2, 16
40081c2d:	056282        	s32i	a8, a2, 20
40081c30:	0415c7        	beq	a5, a12, 40081c38 <z_add_timeout+0xe4>
40081c33:	0558      	l32i.n	a5, a5, 0
40081c35:	fa8556        	bnez	a5, 40081be1 <z_add_timeout+0x8d>
40081c38:	0249      	s32i.n	a4, a2, 0
40081c3a:	12c9      	s32i.n	a12, a2, 4
40081c3c:	0c29      	s32i.n	a2, a12, 0
40081c3e:	1429      	s32i.n	a2, a4, 4
40081c40:	0458      	l32i.n	a5, a4, 0
40081c42:	0a9257        	bne	a2, a5, 40081c50 <z_add_timeout+0xfc>
40081c45:	071547        	beq	a5, a4, 40081c50 <z_add_timeout+0xfc>
40081c48:	ffe825        	call8	40081acc <next_timeout>
40081c4b:	0b0c      	movi.n	a11, 0
40081c4d:	004125        	call8	40082060 <sys_clock_set_timeout>
40081c50:	13e630        	wsr.ps	a3
40081c53:	002010        	rsync
40081c56:	f01d      	retw.n

40081c58 <z_abort_timeout>:
40081c58:	004136        	entry	a1, 32
40081c5b:	02ad      	mov.n	a10, a2
40081c5d:	006320        	rsil	a2, 3
40081c60:	0a98      	l32i.n	a9, a10, 0
40081c62:	a86c      	movi.n	a8, -22
40081c64:	004916        	beqz	a9, 40081c6c <z_abort_timeout+0x14>
40081c67:	ffeb25        	call8	40081b18 <remove_timeout>
40081c6a:	080c      	movi.n	a8, 0
40081c6c:	13e620        	wsr.ps	a2
40081c6f:	002010        	rsync
40081c72:	082d      	mov.n	a2, a8
40081c74:	f01d      	retw.n
	...

40081c78 <sys_clock_announce>:
40081c78:	006136        	entry	a1, 48
40081c7b:	0063b0        	rsil	a11, 3
40081c7e:	fa21c1        	l32r	a12, 40080504 <_init_end+0x104> (3ffb15d4 <announce_remaining>)
40081c81:	fa22e1        	l32r	a14, 4008050c <_init_end+0x10c> (3ffb0038 <timeout_list>)
40081c84:	0c29      	s32i.n	a2, a12, 0
40081c86:	0e28      	l32i.n	a2, a14, 0
40081c88:	0192e7        	bne	a2, a14, 40081c8d <sys_clock_announce+0x15>
40081c8b:	020c      	movi.n	a2, 0
40081c8d:	040c      	movi.n	a4, 0
40081c8f:	045d      	mov.n	a5, a4
40081c91:	001406        	j	40081ce5 <sys_clock_announce+0x6d>
40081c94:	969a      	add.n	a9, a6, a9
40081c96:	318f60        	srai	a8, a6, 31
40081c99:	170c      	movi.n	a7, 1
40081c9b:	013967        	bltu	a9, a6, 40081ca0 <sys_clock_announce+0x28>
40081c9e:	070c      	movi.n	a7, 0
40081ca0:	8088d0        	add	a8, a8, a13
40081ca3:	807780        	add	a7, a7, a8
40081ca6:	006392        	s32i	a9, a3, 0
40081ca9:	1379      	s32i.n	a7, a3, 4
40081cab:	4249      	s32i.n	a4, a2, 16
40081cad:	5259      	s32i.n	a5, a2, 20
40081caf:	01b9      	s32i.n	a11, a1, 0
40081cb1:	02ad      	mov.n	a10, a2
40081cb3:	11c9      	s32i.n	a12, a1, 4
40081cb5:	21e9      	s32i.n	a14, a1, 8
40081cb7:	ffe625        	call8	40081b18 <remove_timeout>
40081cba:	01b8      	l32i.n	a11, a1, 0
40081cbc:	13e6b0        	wsr.ps	a11
40081cbf:	002010        	rsync
40081cc2:	2278      	l32i.n	a7, a2, 8
40081cc4:	02ad      	mov.n	a10, a2
40081cc6:	0007e0        	callx8	a7
40081cc9:	006370        	rsil	a7, 3
40081ccc:	11c8      	l32i.n	a12, a1, 4
40081cce:	07bd      	mov.n	a11, a7
40081cd0:	0c88      	l32i.n	a8, a12, 0
40081cd2:	c08860        	sub	a8, a8, a6
40081cd5:	0c89      	s32i.n	a8, a12, 0
40081cd7:	21e8      	l32i.n	a14, a1, 8
40081cd9:	0e28      	l32i.n	a2, a14, 0
40081cdb:	0692e7        	bne	a2, a14, 40081ce5 <sys_clock_announce+0x6d>
40081cde:	0398      	l32i.n	a9, a3, 0
40081ce0:	13d8      	l32i.n	a13, a3, 4
40081ce2:	000806        	j	40081d06 <sys_clock_announce+0x8e>
40081ce5:	fa0a31        	l32r	a3, 40080510 <_init_end+0x110> (3ffb1460 <curr_tick>)
40081ce8:	0c88      	l32i.n	a8, a12, 0
40081cea:	0398      	l32i.n	a9, a3, 0
40081cec:	13d8      	l32i.n	a13, a3, 4
40081cee:	0b7d      	mov.n	a7, a11
40081cf0:	229c      	beqz.n	a2, 40081d06 <sys_clock_announce+0x8e>
40081cf2:	52a8      	l32i.n	a10, a2, 20
40081cf4:	31ff80        	srai	a15, a8, 31
40081cf7:	4268      	l32i.n	a6, a2, 16
40081cf9:	372fa7        	blt	a15, a10, 40081d34 <sys_clock_announce+0xbc>
40081cfc:	949af7        	bne	a10, a15, 40081c94 <sys_clock_announce+0x1c>
40081cff:	91b867        	bgeu	a8, a6, 40081c94 <sys_clock_announce+0x1c>
40081d02:	000b86        	j	40081d34 <sys_clock_announce+0xbc>
40081d05:	00          	.byte 00
40081d06:	989a      	add.n	a9, a8, a9
40081d08:	314f80        	srai	a4, a8, 31
40081d0b:	120c      	movi.n	a2, 1
40081d0d:	013987        	bltu	a9, a8, 40081d12 <sys_clock_announce+0x9a>
40081d10:	020c      	movi.n	a2, 0
40081d12:	8044d0        	add	a4, a4, a13
40081d15:	224a      	add.n	a2, a2, a4
40081d17:	1329      	s32i.n	a2, a3, 4
40081d19:	020c      	movi.n	a2, 0
40081d1b:	0399      	s32i.n	a9, a3, 0
40081d1d:	0c29      	s32i.n	a2, a12, 0
40081d1f:	ffdae5        	call8	40081acc <next_timeout>
40081d22:	02bd      	mov.n	a11, a2
40081d24:	0033a5        	call8	40082060 <sys_clock_set_timeout>
40081d27:	13e670        	wsr.ps	a7
40081d2a:	002010        	rsync
40081d2d:	ff95e5        	call8	4008168c <z_time_slice>
40081d30:	f01d      	retw.n
40081d32:	00          	.byte 00
40081d33:	00          	.byte 00
40081d34:	c04680        	sub	a4, a6, a8
40081d37:	01a052        	movi	a5, 1
40081d3a:	023647        	bltu	a6, a4, 40081d40 <sys_clock_announce+0xc8>
40081d3d:	00a052        	movi	a5, 0
40081d40:	c0aaf0        	sub	a10, a10, a15
40081d43:	c0aa50        	sub	a10, a10, a5
40081d46:	4249      	s32i.n	a4, a2, 16
40081d48:	52a9      	s32i.n	a10, a2, 20
40081d4a:	ffee06        	j	40081d06 <sys_clock_announce+0x8e>
40081d4d:	000000        	ill

40081d50 <sys_clock_tick_get>:
40081d50:	004136        	entry	a1, 32
40081d53:	006340        	rsil	a4, 3
40081d56:	ffd625        	call8	40081ab8 <elapsed>
40081d59:	f9ed31        	l32r	a3, 40080510 <_init_end+0x110> (3ffb1460 <curr_tick>)
40081d5c:	318fa0        	srai	a8, a10, 31
40081d5f:	0328      	l32i.n	a2, a3, 0
40081d61:	1398      	l32i.n	a9, a3, 4
40081d63:	2a2a      	add.n	a2, a10, a2
40081d65:	130c      	movi.n	a3, 1
40081d67:	0132a7        	bltu	a2, a10, 40081d6c <sys_clock_tick_get+0x1c>
40081d6a:	030c      	movi.n	a3, 0
40081d6c:	889a      	add.n	a8, a8, a9
40081d6e:	338a      	add.n	a3, a3, a8
40081d70:	13e640        	wsr.ps	a4
40081d73:	002010        	rsync
40081d76:	f01d      	retw.n

40081d78 <sys_clock_tick_get_32>:
40081d78:	004136        	entry	a1, 32
40081d7b:	fffd65        	call8	40081d50 <sys_clock_tick_get>
40081d7e:	0a2d      	mov.n	a2, a10
40081d80:	f01d      	retw.n
	...

40081d84 <sys_timepoint_calc>:
40081d84:	004136        	entry	a1, 32
40081d87:	025d      	mov.n	a5, a2
40081d89:	034d      	mov.n	a4, a3
40081d8b:	202330        	or	a2, a3, a3
40081d8e:	020566        	bnei	a5, -1, 40081d94 <sys_timepoint_calc+0x10>
40081d91:	370326        	beqi	a3, -1, 40081dcc <sys_timepoint_calc+0x48>
40081d94:	208450        	or	a8, a4, a5
40081d97:	082d      	mov.n	a2, a8
40081d99:	083d      	mov.n	a3, a8
40081d9b:	d8ac      	beqz.n	a8, 40081dcc <sys_timepoint_calc+0x48>
40081d9d:	e37c      	movi.n	a3, -2
40081d9f:	c09350        	sub	a9, a3, a5
40081da2:	120c      	movi.n	a2, 1
40081da4:	013397        	bltu	a3, a9, 40081da9 <sys_timepoint_calc+0x25>
40081da7:	020c      	movi.n	a2, 0
40081da9:	f87c      	movi.n	a8, -1
40081dab:	c08840        	sub	a8, a8, a4
40081dae:	c08820        	sub	a8, a8, a2
40081db1:	083d      	mov.n	a3, a8
40081db3:	092d      	mov.n	a2, a9
40081db5:	0138d6        	bgez	a8, 40081dcc <sys_timepoint_calc+0x48>
40081db8:	fff965        	call8	40081d50 <sys_clock_tick_get>
40081dbb:	2a5a      	add.n	a2, a10, a5
40081dbd:	180c      	movi.n	a8, 1
40081dbf:	0132a7        	bltu	a2, a10, 40081dc4 <sys_timepoint_calc+0x40>
40081dc2:	080c      	movi.n	a8, 0
40081dc4:	bb4a      	add.n	a11, a11, a4
40081dc6:	38ba      	add.n	a3, a8, a11
40081dc8:	000006        	j	40081dcc <sys_timepoint_calc+0x48>
40081dcb:	00          	.byte 00
40081dcc:	f01d      	retw.n
	...

40081dd0 <sys_timepoint_timeout>:
40081dd0:	004136        	entry	a1, 32
40081dd3:	026d      	mov.n	a6, a2
40081dd5:	034d      	mov.n	a4, a3
40081dd7:	025d      	mov.n	a5, a2
40081dd9:	207330        	or	a7, a3, a3
40081ddc:	050266        	bnei	a2, -1, 40081de5 <sys_timepoint_timeout+0x15>
40081ddf:	202330        	or	a2, a3, a3
40081de2:	320326        	beqi	a3, -1, 40081e18 <sys_timepoint_timeout+0x48>
40081de5:	208460        	or	a8, a4, a6
40081de8:	202880        	or	a2, a8, a8
40081deb:	203880        	or	a3, a8, a8
40081dee:	026816        	beqz	a8, 40081e18 <sys_timepoint_timeout+0x48>
40081df1:	fff5e5        	call8	40081d50 <sys_clock_tick_get>
40081df4:	053b77        	bltu	a11, a7, 40081dfd <sys_timepoint_timeout+0x2d>
40081df7:	1697b7        	bne	a7, a11, 40081e11 <sys_timepoint_timeout+0x41>
40081dfa:	13ba57        	bgeu	a10, a5, 40081e11 <sys_timepoint_timeout+0x41>
40081dfd:	c026a0        	sub	a2, a6, a10
40081e00:	160c      	movi.n	a6, 1
40081e02:	023527        	bltu	a5, a2, 40081e08 <sys_timepoint_timeout+0x38>
40081e05:	00a062        	movi	a6, 0
40081e08:	c034b0        	sub	a3, a4, a11
40081e0b:	c03360        	sub	a3, a3, a6
40081e0e:	000186        	j	40081e18 <sys_timepoint_timeout+0x48>
40081e11:	020c      	movi.n	a2, 0
40081e13:	023d      	mov.n	a3, a2
40081e15:	ffffc6        	j	40081e18 <sys_timepoint_timeout+0x48>
40081e18:	f01d      	retw.n
	...

40081e1c <z_heap_aligned_alloc>:
40081e1c:	004136        	entry	a1, 32
40081e1f:	c44b      	addi.n	a12, a4, 4
40081e21:	04bc47        	bgeu	a12, a4, 40081e29 <z_heap_aligned_alloc+0xd>
40081e24:	020c      	movi.n	a2, 0
40081e26:	000546        	j	40081e3f <z_heap_aligned_alloc+0x23>
40081e29:	0e0c      	movi.n	a14, 0
40081e2b:	4b0c      	movi.n	a11, 4
40081e2d:	0efd      	mov.n	a15, a14
40081e2f:	20b3b0        	or	a11, a3, a11
40081e32:	20a220        	or	a10, a2, a2
40081e35:	ff3e25        	call8	40081218 <k_heap_aligned_alloc>
40081e38:	fe8a16        	beqz	a10, 40081e24 <z_heap_aligned_alloc+0x8>
40081e3b:	0a29      	s32i.n	a2, a10, 0
40081e3d:	2a4b      	addi.n	a2, a10, 4
40081e3f:	f01d      	retw.n
40081e41:	000000        	ill

40081e44 <k_free>:
40081e44:	004136        	entry	a1, 32
40081e47:	00b216        	beqz	a2, 40081e56 <k_free+0x12>
40081e4a:	fcc222        	addi	a2, a2, -4
40081e4d:	0022a2        	l32i	a10, a2, 0
40081e50:	20b220        	or	a11, a2, a2
40081e53:	ff4225        	call8	40081274 <k_heap_free>
40081e56:	f01d      	retw.n

40081e58 <k_aligned_alloc>:
40081e58:	004136        	entry	a1, 32
40081e5b:	f9aea1        	l32r	a10, 40080514 <_init_end+0x114> (3ffb02a4 <_system_heap>)
40081e5e:	20b220        	or	a11, a2, a2
40081e61:	20c330        	or	a12, a3, a3
40081e64:	fffb65        	call8	40081e1c <z_heap_aligned_alloc>
40081e67:	202aa0        	or	a2, a10, a10
40081e6a:	f01d      	retw.n

40081e6c <k_thread_system_pool_assign>:
40081e6c:	004136        	entry	a1, 32
40081e6f:	f9a981        	l32r	a8, 40080514 <_init_end+0x114> (3ffb02a4 <_system_heap>)
40081e72:	136282        	s32i	a8, a2, 76
40081e75:	f01d      	retw.n
	...

40081e78 <boot_banner>:
40081e78:	004136        	entry	a1, 32
40081e7b:	f9a7a1        	l32r	a10, 40080518 <_init_end+0x118> (3f400d20 <xtal_freq+0x39>)
40081e7e:	00d325        	call8	40082bb0 <printk>
40081e81:	f01d      	retw.n
	...

40081e84 <z_device_state_init>:
40081e84:	004136        	entry	a1, 32
40081e87:	f01d      	retw.n
40081e89:	000000        	ill

40081e8c <z_device_is_ready>:
40081e8c:	004136        	entry	a1, 32
40081e8f:	129c      	beqz.n	a2, 40081ea4 <z_device_is_ready+0x18>
40081e91:	3288      	l32i.n	a8, a2, 12
40081e93:	020c      	movi.n	a2, 0
40081e95:	010892        	l8ui	a9, a8, 1
40081e98:	085927        	bbc	a9, a2, 40081ea4 <z_device_is_ready+0x18>
40081e9b:	000892        	l8ui	a9, a8, 0
40081e9e:	01a082        	movi	a8, 1
40081ea1:	832890        	moveqz	a2, a8, a9
40081ea4:	f01d      	retw.n
	...

40081ea8 <arch_system_halt>:
40081ea8:	004136        	entry	a1, 32
40081eab:	006380        	rsil	a8, 3
40081eae:	ffff06        	j	40081eae <arch_system_halt+0x6>
40081eb1:	000000        	ill

40081eb4 <sys_dlist_remove>:
40081eb4:	004136        	entry	a1, 32
40081eb7:	0288      	l32i.n	a8, a2, 0
40081eb9:	1298      	l32i.n	a9, a2, 4
40081ebb:	0989      	s32i.n	a8, a9, 0
40081ebd:	1899      	s32i.n	a9, a8, 4
40081ebf:	080c      	movi.n	a8, 0
40081ec1:	0289      	s32i.n	a8, a2, 0
40081ec3:	1289      	s32i.n	a8, a2, 4
40081ec5:	f01d      	retw.n
	...

40081ec8 <main>:
40081ec8:	004136        	entry	a1, 32
40081ecb:	f03d      	nop.n
40081ecd:	020c      	movi.n	a2, 0
40081ecf:	f01d      	retw.n
40081ed1:	000000        	ill

40081ed4 <xthal_window_spill_nw>:
40081ed4:	034820        	rsr.windowbase	a2
40081ed7:	221b      	addi.n	a2, a2, 1
40081ed9:	400200        	ssr	a2
40081edc:	034930        	rsr.windowstart	a3
40081edf:	912030        	srl	a2, a3
40081ee2:	a13300        	sll	a3, a3
40081ee5:	0bf3d6        	bgez	a3, 40081fa8 <xthal_window_spill_nw+0xd4>
40081ee8:	f53030        	extui	a3, a3, 16, 16
40081eeb:	202230        	or	a2, a2, a3
40081eee:	603020        	neg	a3, a2
40081ef1:	103320        	and	a3, a3, a2
40081ef4:	40f330        	nsau	a3, a3
40081ef7:	401300        	ssl	a3
40081efa:	912020        	srl	a2, a2
40081efd:	134920        	wsr.windowstart	a2
40081f00:	034820        	rsr.windowbase	a2
40081f03:	1fc222        	addi	a2, a2, 31
40081f06:	c03230        	sub	a3, a2, a3
40081f09:	134830        	wsr.windowbase	a3
40081f0c:	002010        	rsync
40081f0f:	034920        	rsr.windowstart	a2
40081f12:	07a216        	beqz	a2, 40081f90 <xthal_window_spill_nw+0xbc>
40081f15:	08e207        	bbsi	a2, 0, 40081f21 <xthal_window_spill_nw+0x4d>
40081f18:	19e217        	bbsi	a2, 1, 40081f35 <xthal_window_spill_nw+0x61>
40081f1b:	3ae227        	bbsi	a2, 2, 40081f59 <xthal_window_spill_nw+0x85>
40081f1e:	002306        	j	40081fae <xthal_window_spill_nw+0xda>
40081f21:	f0c932        	addi	a3, a9, -16
40081f24:	0349      	s32i.n	a4, a3, 0
40081f26:	1359      	s32i.n	a5, a3, 4
40081f28:	2369      	s32i.n	a6, a3, 8
40081f2a:	3379      	s32i.n	a7, a3, 12
40081f2c:	416120        	srli	a6, a2, 1
40081f2f:	408010        	rotw	1
40081f32:	fff706        	j	40081f12 <xthal_window_spill_nw+0x3e>
40081f35:	f0cd32        	addi	a3, a13, -16
40081f38:	0349      	s32i.n	a4, a3, 0
40081f3a:	1359      	s32i.n	a5, a3, 4
40081f3c:	2369      	s32i.n	a6, a3, 8
40081f3e:	3379      	s32i.n	a7, a3, 12
40081f40:	f4c532        	addi	a3, a5, -12
40081f43:	0338      	l32i.n	a3, a3, 0
40081f45:	e0c332        	addi	a3, a3, -32
40081f48:	0389      	s32i.n	a8, a3, 0
40081f4a:	1399      	s32i.n	a9, a3, 4
40081f4c:	23a9      	s32i.n	a10, a3, 8
40081f4e:	33b9      	s32i.n	a11, a3, 12
40081f50:	41a220        	srli	a10, a2, 2
40081f53:	408020        	rotw	2
40081f56:	ffee06        	j	40081f12 <xthal_window_spill_nw+0x3e>
40081f59:	408010        	rotw	1
40081f5c:	f0cdd2        	addi	a13, a13, -16
40081f5f:	0d09      	s32i.n	a0, a13, 0
40081f61:	1d19      	s32i.n	a1, a13, 4
40081f63:	2d29      	s32i.n	a2, a13, 8
40081f65:	3d39      	s32i.n	a3, a13, 12
40081f67:	f4c132        	addi	a3, a1, -12
40081f6a:	0338      	l32i.n	a3, a3, 0
40081f6c:	10cdd2        	addi	a13, a13, 16
40081f6f:	d0c332        	addi	a3, a3, -48
40081f72:	0349      	s32i.n	a4, a3, 0
40081f74:	1359      	s32i.n	a5, a3, 4
40081f76:	2369      	s32i.n	a6, a3, 8
40081f78:	3379      	s32i.n	a7, a3, 12
40081f7a:	4389      	s32i.n	a8, a3, 16
40081f7c:	5399      	s32i.n	a9, a3, 20
40081f7e:	63a9      	s32i.n	a10, a3, 24
40081f80:	73b9      	s32i.n	a11, a3, 28
40081f82:	4080f0        	rotw	-1
40081f85:	41e320        	srli	a14, a2, 3
40081f88:	408030        	rotw	3
40081f8b:	ffe0c6        	j	40081f12 <xthal_window_spill_nw+0x3e>
40081f8e:	00          	.byte 00
40081f8f:	00          	.byte 00
40081f90:	408010        	rotw	1
40081f93:	034820        	rsr.windowbase	a2
40081f96:	401200        	ssl	a2
40081f99:	120c      	movi.n	a2, 1
40081f9b:	a12200        	sll	a2, a2
40081f9e:	134920        	wsr.windowstart	a2
40081fa1:	002010        	rsync
40081fa4:	020c      	movi.n	a2, 0
40081fa6:	f00d      	ret.n
40081fa8:	120c      	movi.n	a2, 1
40081faa:	f00d      	ret.n
40081fac:	00          	.byte 00
40081fad:	00          	.byte 00
40081fae:	1122f0        	slli	a2, a2, 1
40081fb1:	221b      	addi.n	a2, a2, 1
40081fb3:	034830        	rsr.windowbase	a3
40081fb6:	0ae2f7        	bbsi	a2, 15, 40081fc4 <xthal_window_spill_nw+0xf0>
40081fb9:	330b      	addi.n	a3, a3, -1
40081fbb:	1122f0        	slli	a2, a2, 1
40081fbe:	f762f7        	bbci	a2, 15, 40081fb9 <xthal_window_spill_nw+0xe5>
40081fc1:	343030        	extui	a3, a3, 0, 4
40081fc4:	401300        	ssl	a3
40081fc7:	113200        	slli	a3, a2, 16
40081fca:	812230        	src	a2, a2, a3
40081fcd:	f42020        	extui	a2, a2, 0, 16
40081fd0:	134920        	wsr.windowstart	a2
40081fd3:	030330        	rsr.sar	a3
40081fd6:	022c      	movi.n	a2, 32
40081fd8:	c03230        	sub	a3, a2, a3
40081fdb:	134830        	wsr.windowbase	a3
40081fde:	002010        	rsync
40081fe1:	220c      	movi.n	a2, 2
40081fe3:	f00d      	ret.n
40081fe5:	000000        	ill

40081fe8 <xthal_window_spill>:
40081fe8:	002136        	entry	a1, 16
40081feb:	f94c61        	l32r	a6, 4008051c <_init_end+0x11c> (fffbfff0 <_rtc_bss_end+0xaffbfff0>)
40081fee:	03e650        	rsr.ps	a5
40081ff1:	004d      	mov.n	a4, a0
40081ff3:	102560        	and	a2, a5, a6
40081ff6:	223b      	addi.n	a2, a2, 3
40081ff8:	13e620        	wsr.ps	a2
40081ffb:	002010        	rsync
40081ffe:	ffed45        	call0	40081ed4 <xthal_window_spill_nw>
40082001:	040d      	mov.n	a0, a4
40082003:	13e650        	wsr.ps	a5
40082006:	002010        	rsync
40082009:	f01d      	retw.n
	...

4008200c <esp_log_early_timestamp>:
4008200c:	004136        	entry	a1, 32
4008200f:	03ea20        	rsr.ccount	a2
40082012:	f94381        	l32r	a8, 40080520 <_init_end+0x120> (4000855c <ets_get_cpu_frequency>)
40082015:	0008e0        	callx8	a8
40082018:	118ab0        	slli	a8, a10, 5
4008201b:	c088a0        	sub	a8, a8, a10
4008201e:	a088a0        	addx4	a8, a8, a10
40082021:	1188d0        	slli	a8, a8, 3
40082024:	c22280        	quou	a2, a2, a8
40082027:	f01d      	retw.n
40082029:	000000        	ill

4008202c <ccompare_isr>:
4008202c:	004136        	entry	a1, 32
4008202f:	0063c0        	rsil	a12, 3
40082032:	03eaa0        	rsr.ccount	a10
40082035:	f93b91        	l32r	a9, 40080524 <_init_end+0x124> (3ffb15a4 <last_count>)
40082038:	f93c81        	l32r	a8, 40080528 <_init_end+0x128> (57619f1 <CONFIG_FLASH_SIZE+0x53619f1>)
4008203b:	09b8      	l32i.n	a11, a9, 0
4008203d:	c0aab0        	sub	a10, a10, a11
40082040:	a2aa80        	muluh	a10, a10, a8
40082043:	77a182        	movi	a8, 0x177
40082046:	41a9a0        	srli	a10, a10, 9
40082049:	1188a0        	slli	a8, a8, 6
4008204c:	828a80        	mull	a8, a10, a8
4008204f:	88ba      	add.n	a8, a8, a11
40082051:	0989      	s32i.n	a8, a9, 0
40082053:	13e6c0        	wsr.ps	a12
40082056:	002010        	rsync
40082059:	ffc1e5        	call8	40081c78 <sys_clock_announce>
4008205c:	f01d      	retw.n
	...

40082060 <sys_clock_set_timeout>:
40082060:	004136        	entry	a1, 32
40082063:	0d0226        	beqi	a2, -1, 40082074 <sys_clock_set_timeout+0x14>
40082066:	080c      	movi.n	a8, 0
40082068:	0d22a6        	blti	a2, 2, 40082079 <sys_clock_set_timeout+0x19>
4008206b:	f93081        	l32r	a8, 4008052c <_init_end+0x12c> (2bb0b <CONFIG_ESP_HEAP_MEM_POOL_REGION_1_SIZE+0x1fb0b>)
4008206e:	072827        	blt	a8, a2, 40082079 <sys_clock_set_timeout+0x19>
40082071:	000086        	j	40082077 <sys_clock_set_timeout+0x17>
40082074:	f92e21        	l32r	a2, 4008052c <_init_end+0x12c> (2bb0b <CONFIG_ESP_HEAP_MEM_POOL_REGION_1_SIZE+0x1fb0b>)
40082077:	820b      	addi.n	a8, a2, -1
40082079:	0063e0        	rsil	a14, 3
4008207c:	03ead0        	rsr.ccount	a13
4008207f:	f92921        	l32r	a2, 40080524 <_init_end+0x124> (3ffb15a4 <last_count>)
40082082:	f92bb1        	l32r	a11, 40080530 <_init_end+0x130> (5dbf <CONFIG_COVERAGE_GCOV_HEAP_SIZE+0x1dbf>)
40082085:	0298      	l32i.n	a9, a2, 0
40082087:	77a1c2        	movi	a12, 0x177
4008208a:	11cca0        	slli	a12, a12, 6
4008208d:	c0bb90        	sub	a11, a11, a9
40082090:	82a8c0        	mull	a10, a8, a12
40082093:	bbda      	add.n	a11, a11, a13
40082095:	f87c      	movi.n	a8, -1
40082097:	3028b0        	xor	a2, a8, a11
4008209a:	0232a7        	bltu	a2, a10, 400820a0 <sys_clock_set_timeout+0x40>
4008209d:	808ab0        	add	a8, a10, a11
400820a0:	f92221        	l32r	a2, 40080528 <_init_end+0x128> (57619f1 <CONFIG_FLASH_SIZE+0x53619f1>)
400820a3:	a28820        	muluh	a8, a8, a2
400820a6:	e7a322        	movi	a2, 0x3e7
400820a9:	418980        	srli	a8, a8, 9
400820ac:	8288c0        	mull	a8, a8, a12
400820af:	898a      	add.n	a8, a9, a8
400820b1:	c0d8d0        	sub	a13, a8, a13
400820b4:	0132d7        	bltu	a2, a13, 400820b9 <sys_clock_set_timeout+0x59>
400820b7:	88ca      	add.n	a8, a8, a12
400820b9:	13f080        	wsr.ccompare0	a8
400820bc:	13e6e0        	wsr.ps	a14
400820bf:	002010        	rsync
400820c2:	f01d      	retw.n

400820c4 <sys_clock_elapsed>:
400820c4:	004136        	entry	a1, 32
400820c7:	006380        	rsil	a8, 3
400820ca:	03ea20        	rsr.ccount	a2
400820cd:	f91591        	l32r	a9, 40080524 <_init_end+0x124> (3ffb15a4 <last_count>)
400820d0:	0998      	l32i.n	a9, a9, 0
400820d2:	c02290        	sub	a2, a2, a9
400820d5:	f91491        	l32r	a9, 40080528 <_init_end+0x128> (57619f1 <CONFIG_FLASH_SIZE+0x53619f1>)
400820d8:	a22290        	muluh	a2, a2, a9
400820db:	412920        	srli	a2, a2, 9
400820de:	13e680        	wsr.ps	a8
400820e1:	002010        	rsync
400820e4:	f01d      	retw.n
	...

400820e8 <sys_clock_driver_init>:
400820e8:	004136        	entry	a1, 32
400820eb:	03ea80        	rsr.ccount	a8
400820ee:	77a192        	movi	a9, 0x177
400820f1:	1199a0        	slli	a9, a9, 6
400820f4:	889a      	add.n	a8, a8, a9
400820f6:	13f080        	wsr.ccompare0	a8
400820f9:	03e480        	rsr.intenable	a8
400820fc:	094c      	movi.n	a9, 64
400820fe:	208890        	or	a8, a8, a9
40082101:	13e480        	wsr.intenable	a8
40082104:	002010        	rsync
40082107:	020c      	movi.n	a2, 0
40082109:	f01d      	retw.n
	...

4008210c <sys_clock_cycle_get_32>:
4008210c:	004136        	entry	a1, 32
4008210f:	03ea20        	rsr.ccount	a2
40082112:	f01d      	retw.n

40082114 <encode_uint>:
40082114:	006136        	entry	a1, 48
40082117:	030492        	l8ui	a9, a4, 3
4008211a:	0129      	s32i.n	a2, a1, 0
4008211c:	bfc922        	addi	a2, a9, -65
4008211f:	2159      	s32i.n	a5, a1, 8
40082121:	1129      	s32i.n	a2, a1, 4
40082123:	6fa022        	movi	a2, 111
40082126:	047d      	mov.n	a7, a4
40082128:	850c      	movi.n	a5, 8
4008212a:	1a1927        	beq	a9, a2, 40082148 <encode_uint+0x34>
4008212d:	053297        	bltu	a2, a9, 40082136 <encode_uint+0x22>
40082130:	a8c992        	addi	a9, a9, -88
40082133:	0001c6        	j	4008213e <encode_uint+0x2a>
40082136:	727c      	movi.n	a2, -9
40082138:	109920        	and	a9, a9, a2
4008213b:	90c992        	addi	a9, a9, -112
4008213e:	a20c      	movi.n	a2, 10
40082140:	081c      	movi.n	a8, 16
40082142:	205220        	or	a5, a2, a2
40082145:	835890        	moveqz	a5, a8, a9
40082148:	064d      	mov.n	a4, a6
4008214a:	921c      	movi.n	a2, 25
4008214c:	060c      	movi.n	a6, 0
4008214e:	000106        	j	40082156 <encode_uint+0x42>
40082151:	00          	.byte 00
40082152:	01a9      	s32i.n	a10, a1, 0
40082154:	0b3d      	mov.n	a3, a11
40082156:	01a8      	l32i.n	a10, a1, 0
40082158:	05cd      	mov.n	a12, a5
4008215a:	0d0c      	movi.n	a13, 0
4008215c:	03bd      	mov.n	a11, a3
4008215e:	f8f581        	l32r	a8, 40080534 <_init_end+0x134> (4000d280 <__umoddi3>)
40082161:	0008e0        	callx8	a8
40082164:	980c      	movi.n	a8, 9
40082166:	74b0a0        	extui	a11, a10, 0, 8
40082169:	0538a7        	bltu	a8, a10, 40082172 <encode_uint+0x5e>
4008216c:	30cbb2        	addi	a11, a11, 48
4008216f:	000346        	j	40082180 <encode_uint+0x6c>
40082172:	1188      	l32i.n	a8, a1, 4
40082174:	57cba2        	addi	a10, a11, 87
40082177:	74a0a0        	extui	a10, a10, 0, 8
4008217a:	053287        	bltu	a2, a8, 40082183 <encode_uint+0x6f>
4008217d:	37cbb2        	addi	a11, a11, 55
40082180:	74a0b0        	extui	a10, a11, 0, 8
40082183:	440b      	addi.n	a4, a4, -1
40082185:	0044a2        	s8i	a10, a4, 0
40082188:	01a8      	l32i.n	a10, a1, 0
4008218a:	05cd      	mov.n	a12, a5
4008218c:	20d660        	or	a13, a6, a6
4008218f:	20b330        	or	a11, a3, a3
40082192:	f8c181        	l32r	a8, 40080498 <_init_end+0x98> (4000cff8 <__udivdi3>)
40082195:	0008e0        	callx8	a8
40082198:	049637        	bne	a6, a3, 400821a0 <encode_uint+0x8c>
4008219b:	0188      	l32i.n	a8, a1, 0
4008219d:	043857        	bltu	a8, a5, 400821a5 <encode_uint+0x91>
400821a0:	2138      	l32i.n	a3, a1, 8
400821a2:	ac3347        	bltu	a3, a4, 40082152 <encode_uint+0x3e>
400821a5:	001722        	l16ui	a2, a7, 0
400821a8:	1c6257        	bbci	a2, 5, 400821c8 <encode_uint+0xb4>
400821ab:	0d8566        	bnei	a5, 8, 400821bc <encode_uint+0xa8>
400821ae:	020722        	l8ui	a2, a7, 2
400821b1:	202520        	or	a2, a5, a2
400821b4:	024722        	s8i	a2, a7, 2
400821b7:	000346        	j	400821c8 <encode_uint+0xb4>
400821ba:	00          	.byte 00
400821bb:	00          	.byte 00
400821bc:	08b566        	bnei	a5, 16, 400821c8 <encode_uint+0xb4>
400821bf:	020722        	l8ui	a2, a7, 2
400821c2:	208520        	or	a8, a5, a2
400821c5:	024782        	s8i	a8, a7, 2
400821c8:	042d      	mov.n	a2, a4
400821ca:	f01d      	retw.n

400821cc <z_cbvprintf_impl>:
400821cc:	010136        	entry	a1, 128
400821cf:	126132        	s32i	a3, a1, 72
400821d2:	049d      	mov.n	a9, a4
400821d4:	116122        	s32i	a2, a1, 68
400821d7:	f159      	s32i.n	a5, a1, 60
400821d9:	c159      	s32i.n	a5, a1, 48
400821db:	106162        	s32i	a6, a1, 64
400821de:	d169      	s32i.n	a6, a1, 52
400821e0:	e179      	s32i.n	a7, a1, 56
400821e2:	074d      	mov.n	a4, a7
400821e4:	030c      	movi.n	a3, 0
400821e6:	025546        	j	40082b3f <z_cbvprintf_impl+0x973>
400821e9:	591b      	addi.n	a5, a9, 1
400821eb:	136152        	s32i	a5, a1, 76
400821ee:	25a052        	movi	a5, 37
400821f1:	0e1257        	beq	a2, a5, 40082203 <z_cbvprintf_impl+0x37>
400821f4:	1221b2        	l32i	a11, a1, 72
400821f7:	112182        	l32i	a8, a1, 68
400821fa:	20a220        	or	a10, a2, a2
400821fd:	0008e0        	callx8	a8
40082200:	01b886        	j	400828e6 <z_cbvprintf_impl+0x71a>
40082203:	156192        	s32i	a9, a1, 84
40082206:	8c1c      	movi.n	a12, 24
40082208:	0b0c      	movi.n	a11, 0
4008220a:	20a110        	or	a10, a1, a1
4008220d:	00a6e5        	call8	40082c7c <memset>
40082210:	152192        	l32i	a9, a1, 84
40082213:	010952        	l8ui	a5, a9, 1
40082216:	0c9527        	bne	a5, a2, 40082226 <z_cbvprintf_impl+0x5a>
40082219:	292b      	addi.n	a2, a9, 2
4008221b:	552c      	movi.n	a5, 37
4008221d:	136122        	s32i	a2, a1, 76
40082220:	0b4152        	s8i	a5, a1, 11
40082223:	00f8c6        	j	4008260a <z_cbvprintf_impl+0x43e>
40082226:	050c      	movi.n	a5, 0
40082228:	057d      	mov.n	a7, a5
4008222a:	05ad      	mov.n	a10, a5
4008222c:	05bd      	mov.n	a11, a5
4008222e:	05cd      	mov.n	a12, a5
40082230:	bd2c      	movi.n	a13, 43
40082232:	160c      	movi.n	a6, 1
40082234:	0e3c      	movi.n	a14, 48
40082236:	3f2c      	movi.n	a15, 35
40082238:	132182        	l32i	a8, a1, 76
4008223b:	000822        	l8ui	a2, a8, 0
4008223e:	6312d7        	beq	a2, a13, 400822a5 <z_cbvprintf_impl+0xd9>
40082241:	083d27        	bltu	a13, a2, 4008224d <z_cbvprintf_impl+0x81>
40082244:	62c226        	beqi	a2, 32, 400822aa <z_cbvprintf_impl+0xde>
40082247:	6512f7        	beq	a2, a15, 400822b0 <z_cbvprintf_impl+0xe4>
4008224a:	0001c6        	j	40082255 <z_cbvprintf_impl+0x89>
4008224d:	d82c      	movi.n	a8, 45
4008224f:	621287        	beq	a2, a8, 400822b5 <z_cbvprintf_impl+0xe9>
40082252:	6412e7        	beq	a2, a14, 400822ba <z_cbvprintf_impl+0xee>
40082255:	958c      	beqz.n	a5, 40082262 <z_cbvprintf_impl+0x96>
40082257:	041152        	l16ui	a5, a1, 8
4008225a:	064c      	movi.n	a6, 64
4008225c:	205560        	or	a5, a5, a6
4008225f:	045152        	s16i	a5, a1, 8
40082262:	a78c      	beqz.n	a7, 40082270 <z_cbvprintf_impl+0xa4>
40082264:	041152        	l16ui	a5, a1, 8
40082267:	20a062        	movi	a6, 32
4008226a:	205560        	or	a5, a5, a6
4008226d:	045152        	s16i	a5, a1, 8
40082270:	9a8c      	beqz.n	a10, 4008227d <z_cbvprintf_impl+0xb1>
40082272:	041152        	l16ui	a5, a1, 8
40082275:	061c      	movi.n	a6, 16
40082277:	205560        	or	a5, a5, a6
4008227a:	045152        	s16i	a5, a1, 8
4008227d:	9b8c      	beqz.n	a11, 4008228a <z_cbvprintf_impl+0xbe>
4008227f:	041152        	l16ui	a5, a1, 8
40082282:	860c      	movi.n	a6, 8
40082284:	205560        	or	a5, a5, a6
40082287:	045152        	s16i	a5, a1, 8
4008228a:	ac8c      	beqz.n	a12, 40082298 <z_cbvprintf_impl+0xcc>
4008228c:	041152        	l16ui	a5, a1, 8
4008228f:	04a062        	movi	a6, 4
40082292:	205560        	or	a5, a5, a6
40082295:	045152        	s16i	a5, a1, 8
40082298:	2158      	l32i.n	a5, a1, 8
4008229a:	464c      	movi.n	a6, 68
4008229c:	105650        	and	a5, a6, a5
4008229f:	319567        	bne	a5, a6, 400822d4 <z_cbvprintf_impl+0x108>
400822a2:	000886        	j	400822c8 <z_cbvprintf_impl+0xfc>
400822a5:	06bd      	mov.n	a11, a6
400822a7:	000446        	j	400822bc <z_cbvprintf_impl+0xf0>
400822aa:	06ad      	mov.n	a10, a6
400822ac:	000306        	j	400822bc <z_cbvprintf_impl+0xf0>
400822af:	00          	.byte 00
400822b0:	067d      	mov.n	a7, a6
400822b2:	000186        	j	400822bc <z_cbvprintf_impl+0xf0>
400822b5:	06cd      	mov.n	a12, a6
400822b7:	000046        	j	400822bc <z_cbvprintf_impl+0xf0>
400822ba:	065d      	mov.n	a5, a6
400822bc:	132122        	l32i	a2, a1, 76
400822bf:	221b      	addi.n	a2, a2, 1
400822c1:	136122        	s32i	a2, a1, 76
400822c4:	ffdc06        	j	40082238 <z_cbvprintf_impl+0x6c>
400822c7:	00          	.byte 00
400822c8:	041152        	l16ui	a5, a1, 8
400822cb:	bfaf62        	movi	a6, -65
400822ce:	105560        	and	a5, a5, a6
400822d1:	045152        	s16i	a5, a1, 8
400822d4:	041172        	l16ui	a7, a1, 8
400822d7:	80a052        	movi	a5, 128
400822da:	207750        	or	a7, a7, a5
400822dd:	045172        	s16i	a7, a1, 8
400822e0:	ab2c      	movi.n	a11, 42
400822e2:	132152        	l32i	a5, a1, 76
400822e5:	060c      	movi.n	a6, 0
400822e7:	9a0c      	movi.n	a10, 9
400822e9:	1b92b7        	bne	a2, a11, 40082308 <z_cbvprintf_impl+0x13c>
400822ec:	00a122        	movi	a2, 0x100
400822ef:	207720        	or	a7, a7, a2
400822f2:	551b      	addi.n	a5, a5, 1
400822f4:	045172        	s16i	a7, a1, 8
400822f7:	000d46        	j	40082330 <z_cbvprintf_impl+0x164>
400822fa:	00          	.byte 00
400822fb:	00          	.byte 00
400822fc:	00          	.byte 00
400822fd:	a06660        	addx4	a6, a6, a6
40082300:	906620        	addx2	a6, a6, a2
40082303:	d0c662        	addi	a6, a6, -48
40082306:	0b5d      	mov.n	a5, a11
40082308:	000522        	l8ui	a2, a5, 0
4008230b:	b51b      	addi.n	a11, a5, 1
4008230d:	d0c272        	addi	a7, a2, -48
40082310:	e9ba77        	bgeu	a10, a7, 400822fd <z_cbvprintf_impl+0x131>
40082313:	132182        	l32i	a8, a1, 76
40082316:	161857        	beq	a8, a5, 40082330 <z_cbvprintf_impl+0x164>
40082319:	041122        	l16ui	a2, a1, 8
4008231c:	3169      	s32i.n	a6, a1, 12
4008231e:	fdaf72        	movi	a7, -3
40082321:	056f60        	extui	a6, a6, 31, 1
40082324:	806660        	add	a6, a6, a6
40082327:	102270        	and	a2, a2, a7
4008232a:	202260        	or	a2, a2, a6
4008232d:	045122        	s16i	a2, a1, 8
40082330:	0005a2        	l8ui	a10, a5, 0
40082333:	020c      	movi.n	a2, 0
40082335:	d2ca62        	addi	a6, a10, -46
40082338:	170c      	movi.n	a7, 1
4008233a:	937260        	movnez	a7, a2, a6
4008233d:	041162        	l16ui	a6, a1, 8
40082340:	ffadb2        	movi	a11, 0xfffffdff
40082343:	117770        	slli	a7, a7, 9
40082346:	1066b0        	and	a6, a6, a11
40082349:	206670        	or	a6, a6, a7
4008234c:	045162        	s16i	a6, a1, 8
4008234f:	e72c      	movi.n	a7, 46
40082351:	509a77        	bne	a10, a7, 400823a5 <z_cbvprintf_impl+0x1d9>
40082354:	0105a2        	l8ui	a10, a5, 1
40082357:	a72c      	movi.n	a7, 42
40082359:	071a77        	beq	a10, a7, 40082364 <z_cbvprintf_impl+0x198>
4008235c:	551b      	addi.n	a5, a5, 1
4008235e:	960c      	movi.n	a6, 9
40082360:	000646        	j	4008237d <z_cbvprintf_impl+0x1b1>
40082363:	00          	.byte 00
40082364:	00a422        	movi	a2, 0x400
40082367:	206620        	or	a6, a6, a2
4008236a:	045162        	s16i	a6, a1, 8
4008236d:	552b      	addi.n	a5, a5, 2
4008236f:	000c86        	j	400823a5 <z_cbvprintf_impl+0x1d9>
40082372:	a02220        	addx4	a2, a2, a2
40082375:	9022a0        	addx2	a2, a2, a10
40082378:	d0c222        	addi	a2, a2, -48
4008237b:	075d      	mov.n	a5, a7
4008237d:	0005a2        	l8ui	a10, a5, 0
40082380:	751b      	addi.n	a7, a5, 1
40082382:	d0cab2        	addi	a11, a10, -48
40082385:	e9b6b7        	bgeu	a6, a11, 40082372 <z_cbvprintf_impl+0x1a6>
40082388:	2168      	l32i.n	a6, a1, 8
4008238a:	4129      	s32i.n	a2, a1, 16
4008238c:	046160        	extui	a6, a6, 1, 1
4008238f:	052f20        	extui	a2, a2, 31, 1
40082392:	202620        	or	a2, a6, a2
40082395:	041162        	l16ui	a6, a1, 8
40082398:	d77c      	movi.n	a7, -3
4008239a:	222a      	add.n	a2, a2, a2
4008239c:	106670        	and	a6, a6, a7
4008239f:	202620        	or	a2, a6, a2
400823a2:	045122        	s16i	a2, a1, 8
400823a5:	000562        	l8ui	a6, a5, 0
400823a8:	6ca022        	movi	a2, 108
400823ab:	511627        	beq	a6, a2, 40082400 <z_cbvprintf_impl+0x234>
400823ae:	163267        	bltu	a2, a6, 400823c8 <z_cbvprintf_impl+0x1fc>
400823b1:	68a022        	movi	a2, 104
400823b4:	201627        	beq	a6, a2, 400823d8 <z_cbvprintf_impl+0x20c>
400823b7:	6aa022        	movi	a2, 106
400823ba:	671627        	beq	a6, a2, 40082425 <z_cbvprintf_impl+0x259>
400823bd:	c24c      	movi.n	a2, 76
400823bf:	029627        	bne	a6, a2, 400823c5 <z_cbvprintf_impl+0x1f9>
400823c2:	002486        	j	40082458 <z_cbvprintf_impl+0x28c>
400823c5:	002786        	j	40082467 <z_cbvprintf_impl+0x29b>
400823c8:	74a022        	movi	a2, 116
400823cb:	761627        	beq	a6, a2, 40082445 <z_cbvprintf_impl+0x279>
400823ce:	7aa022        	movi	a2, 122
400823d1:	5f1627        	beq	a6, a2, 40082434 <z_cbvprintf_impl+0x268>
400823d4:	0023c6        	j	40082467 <z_cbvprintf_impl+0x29b>
400823d7:	00          	.byte 00
400823d8:	0411a2        	l16ui	a10, a1, 8
400823db:	f85921        	l32r	a2, 40080540 <_init_end+0x140> (ffff87ff <_rtc_bss_end+0xafff87ff>)
400823de:	0105b2        	l8ui	a11, a5, 1
400823e1:	170c      	movi.n	a7, 1
400823e3:	1022a0        	and	a2, a2, a10
400823e6:	069b67        	bne	a11, a6, 400823f0 <z_cbvprintf_impl+0x224>
400823e9:	116750        	slli	a6, a7, 11
400823ec:	000906        	j	40082414 <z_cbvprintf_impl+0x248>
400823ef:	00          	.byte 00
400823f0:	116740        	slli	a6, a7, 12
400823f3:	202260        	or	a2, a2, a6
400823f6:	045122        	s16i	a2, a1, 8
400823f9:	551b      	addi.n	a5, a5, 1
400823fb:	001a06        	j	40082467 <z_cbvprintf_impl+0x29b>
400823fe:	00          	.byte 00
400823ff:	00          	.byte 00
40082400:	041172        	l16ui	a7, a1, 8
40082403:	f84f21        	l32r	a2, 40080540 <_init_end+0x140> (ffff87ff <_rtc_bss_end+0xafff87ff>)
40082406:	0105a2        	l8ui	a10, a5, 1
40082409:	102270        	and	a2, a2, a7
4008240c:	109a67        	bne	a10, a6, 40082420 <z_cbvprintf_impl+0x254>
4008240f:	160c      	movi.n	a6, 1
40082411:	116630        	slli	a6, a6, 13
40082414:	202260        	or	a2, a2, a6
40082417:	045122        	s16i	a2, a1, 8
4008241a:	552b      	addi.n	a5, a5, 2
4008241c:	0011c6        	j	40082467 <z_cbvprintf_impl+0x29b>
4008241f:	00          	.byte 00
40082420:	360c      	movi.n	a6, 3
40082422:	000a86        	j	40082450 <z_cbvprintf_impl+0x284>
40082425:	f84661        	l32r	a6, 40080540 <_init_end+0x140> (ffff87ff <_rtc_bss_end+0xafff87ff>)
40082428:	041122        	l16ui	a2, a1, 8
4008242b:	102260        	and	a2, a2, a6
4008242e:	560c      	movi.n	a6, 5
40082430:	000706        	j	40082450 <z_cbvprintf_impl+0x284>
40082433:	00          	.byte 00
40082434:	f84361        	l32r	a6, 40080540 <_init_end+0x140> (ffff87ff <_rtc_bss_end+0xafff87ff>)
40082437:	041122        	l16ui	a2, a1, 8
4008243a:	102260        	and	a2, a2, a6
4008243d:	360c      	movi.n	a6, 3
4008243f:	116640        	slli	a6, a6, 12
40082442:	ffeb46        	j	400823f3 <z_cbvprintf_impl+0x227>
40082445:	f83e61        	l32r	a6, 40080540 <_init_end+0x140> (ffff87ff <_rtc_bss_end+0xafff87ff>)
40082448:	041122        	l16ui	a2, a1, 8
4008244b:	102260        	and	a2, a2, a6
4008244e:	760c      	movi.n	a6, 7
40082450:	116650        	slli	a6, a6, 11
40082453:	ffe706        	j	400823f3 <z_cbvprintf_impl+0x227>
40082456:	00          	.byte 00
40082457:	00          	.byte 00
40082458:	f83b61        	l32r	a6, 40080544 <_init_end+0x144> (ffff87fd <_rtc_bss_end+0xafff87fd>)
4008245b:	041122        	l16ui	a2, a1, 8
4008245e:	102260        	and	a2, a2, a6
40082461:	f83961        	l32r	a6, 40080548 <_init_end+0x148> (4002 <CONFIG_COVERAGE_GCOV_HEAP_SIZE+0x2>)
40082464:	ffe2c6        	j	400823f3 <z_cbvprintf_impl+0x227>
40082467:	251b      	addi.n	a2, a5, 1
40082469:	136122        	s32i	a2, a1, 76
4008246c:	000522        	l8ui	a2, a5, 0
4008246f:	78a052        	movi	a5, 120
40082472:	0b4122        	s8i	a2, a1, 11
40082475:	02b527        	bgeu	a5, a2, 4008247b <z_cbvprintf_impl+0x2af>
40082478:	005946        	j	400825e1 <z_cbvprintf_impl+0x415>
4008247b:	6da052        	movi	a5, 109
4008247e:	243527        	bltu	a5, a2, 400824a6 <z_cbvprintf_impl+0x2da>
40082481:	69a052        	movi	a5, 105
40082484:	02b527        	bgeu	a5, a2, 4008248a <z_cbvprintf_impl+0x2be>
40082487:	005586        	j	400825e1 <z_cbvprintf_impl+0x415>
4008248a:	755c      	movi.n	a5, 87
4008248c:	3c3527        	bltu	a5, a2, 400824cc <z_cbvprintf_impl+0x300>
4008248f:	154c      	movi.n	a5, 65
40082491:	029257        	bne	a2, a5, 40082497 <z_cbvprintf_impl+0x2cb>
40082494:	003906        	j	4008257c <z_cbvprintf_impl+0x3b0>
40082497:	bbc222        	addi	a2, a2, -69
4008249a:	742020        	extui	a2, a2, 0, 8
4008249d:	0232b6        	bltui	a2, 3, 400824a3 <z_cbvprintf_impl+0x2d7>
400824a0:	004f46        	j	400825e1 <z_cbvprintf_impl+0x415>
400824a3:	003546        	j	4008257c <z_cbvprintf_impl+0x3b0>
400824a6:	92c222        	addi	a2, a2, -110
400824a9:	150c      	movi.n	a5, 1
400824ab:	401200        	ssl	a2
400824ae:	a12500        	sll	a2, a5
400824b1:	82a4a2        	movi	a10, 0x482
400824b4:	10a2a0        	and	a10, a2, a10
400824b7:	061a56        	bnez	a10, 4008251c <z_cbvprintf_impl+0x350>
400824ba:	472c      	movi.n	a7, 36
400824bc:	107270        	and	a7, a2, a7
400824bf:	0f5756        	bnez	a7, 400825b8 <z_cbvprintf_impl+0x3ec>
400824c2:	02e207        	bbsi	a2, 0, 400824c8 <z_cbvprintf_impl+0x2fc>
400824c5:	004606        	j	400825e1 <z_cbvprintf_impl+0x415>
400824c8:	003146        	j	40082591 <z_cbvprintf_impl+0x3c5>
400824cb:	00          	.byte 00
400824cc:	a8c262        	addi	a6, a2, -88
400824cf:	150c      	movi.n	a5, 1
400824d1:	401600        	ssl	a6
400824d4:	a17500        	sll	a7, a5
400824d7:	71a062        	movi	a6, 113
400824da:	116670        	slli	a6, a6, 9
400824dd:	020767        	bnone	a7, a6, 400824e3 <z_cbvprintf_impl+0x317>
400824e0:	002606        	j	4008257c <z_cbvprintf_impl+0x3b0>
400824e3:	f81a61        	l32r	a6, 4008054c <_init_end+0x14c> (801 <CONFIG_ISR_STACK_SIZE+0x1>)
400824e6:	4a8767        	bany	a7, a6, 40082534 <z_cbvprintf_impl+0x368>
400824e9:	122c      	movi.n	a2, 33
400824eb:	112240        	slli	a2, a2, 12
400824ee:	028727        	bany	a7, a2, 400824f4 <z_cbvprintf_impl+0x328>
400824f1:	003b06        	j	400825e1 <z_cbvprintf_impl+0x415>
400824f4:	0a0122        	l8ui	a2, a1, 10
400824f7:	867c      	movi.n	a6, -8
400824f9:	102260        	and	a2, a2, a6
400824fc:	202250        	or	a2, a2, a5
400824ff:	041162        	l16ui	a6, a1, 8
40082502:	f81371        	l32r	a7, 40080550 <_init_end+0x150> (4000 <CONFIG_COVERAGE_GCOV_HEAP_SIZE>)
40082505:	0a4122        	s8i	a2, a1, 10
40082508:	f20c      	movi.n	a2, 15
4008250a:	112250        	slli	a2, a2, 11
4008250d:	102260        	and	a2, a2, a6
40082510:	f47070        	extui	a7, a7, 0, 16
40082513:	151277        	beq	a2, a7, 4008252c <z_cbvprintf_impl+0x360>
40082516:	020c      	movi.n	a2, 0
40082518:	0034c6        	j	400825ef <z_cbvprintf_impl+0x423>
4008251b:	00          	.byte 00
4008251c:	0a0122        	l8ui	a2, a1, 10
4008251f:	867c      	movi.n	a6, -8
40082521:	102260        	and	a2, a2, a6
40082524:	260c      	movi.n	a6, 2
40082526:	202260        	or	a2, a2, a6
40082529:	fff486        	j	400824ff <z_cbvprintf_impl+0x333>
4008252c:	202560        	or	a2, a5, a6
4008252f:	002d86        	j	400825e9 <z_cbvprintf_impl+0x41d>
40082532:	00          	.byte 00
40082533:	00          	.byte 00
40082534:	0a0162        	l8ui	a6, a1, 10
40082537:	877c      	movi.n	a7, -8
40082539:	106670        	and	a6, a6, a7
4008253c:	02a072        	movi	a7, 2
4008253f:	206670        	or	a6, a6, a7
40082542:	0411a2        	l16ui	a10, a1, 8
40082545:	f80271        	l32r	a7, 40080550 <_init_end+0x150> (4000 <CONFIG_COVERAGE_GCOV_HEAP_SIZE>)
40082548:	0a4162        	s8i	a6, a1, 10
4008254b:	0fa062        	movi	a6, 15
4008254e:	116650        	slli	a6, a6, 11
40082551:	1066a0        	and	a6, a6, a10
40082554:	f47070        	extui	a7, a7, 0, 16
40082557:	059677        	bne	a6, a7, 40082560 <z_cbvprintf_impl+0x394>
4008255a:	2055a0        	or	a5, a5, a10
4008255d:	045152        	s16i	a5, a1, 8
40082560:	63a052        	movi	a5, 99
40082563:	af9257        	bne	a2, a5, 40082516 <z_cbvprintf_impl+0x34a>
40082566:	041152        	l16ui	a5, a1, 8
40082569:	f20c      	movi.n	a2, 15
4008256b:	112250        	slli	a2, a2, 11
4008256e:	105250        	and	a5, a2, a5
40082571:	060c      	movi.n	a6, 0
40082573:	120c      	movi.n	a2, 1
40082575:	832650        	moveqz	a2, a6, a5
40082578:	001706        	j	400825d8 <z_cbvprintf_impl+0x40c>
4008257b:	00          	.byte 00
4008257c:	0a0122        	l8ui	a2, a1, 10
4008257f:	857c      	movi.n	a5, -8
40082581:	102250        	and	a2, a2, a5
40082584:	450c      	movi.n	a5, 4
40082586:	202250        	or	a2, a2, a5
40082589:	0a4122        	s8i	a2, a1, 10
4008258c:	120c      	movi.n	a2, 1
4008258e:	001746        	j	400825ef <z_cbvprintf_impl+0x423>
40082591:	0a0122        	l8ui	a2, a1, 10
40082594:	867c      	movi.n	a6, -8
40082596:	102260        	and	a2, a2, a6
40082599:	360c      	movi.n	a6, 3
4008259b:	202260        	or	a2, a2, a6
4008259e:	0a4122        	s8i	a2, a1, 10
400825a1:	041162        	l16ui	a6, a1, 8
400825a4:	f20c      	movi.n	a2, 15
400825a6:	112250        	slli	a2, a2, 11
400825a9:	102260        	and	a2, a2, a6
400825ac:	c0d262        	addmi	a6, a2, 0xffffc000
400825af:	072d      	mov.n	a2, a7
400825b1:	832560        	moveqz	a2, a5, a6
400825b4:	000dc6        	j	400825ef <z_cbvprintf_impl+0x423>
400825b7:	00          	.byte 00
400825b8:	0a0122        	l8ui	a2, a1, 10
400825bb:	867c      	movi.n	a6, -8
400825bd:	102260        	and	a2, a2, a6
400825c0:	360c      	movi.n	a6, 3
400825c2:	202260        	or	a2, a2, a6
400825c5:	0a4122        	s8i	a2, a1, 10
400825c8:	041162        	l16ui	a6, a1, 8
400825cb:	f20c      	movi.n	a2, 15
400825cd:	112250        	slli	a2, a2, 11
400825d0:	106260        	and	a6, a2, a6
400825d3:	0a2d      	mov.n	a2, a10
400825d5:	932560        	movnez	a2, a5, a6
400825d8:	742020        	extui	a2, a2, 0, 8
400825db:	000406        	j	400825ef <z_cbvprintf_impl+0x423>
400825de:	00          	.byte 00
400825df:	00          	.byte 00
400825e0:	00          	.byte 00
400825e1:	041122        	l16ui	a2, a1, 8
400825e4:	150c      	movi.n	a5, 1
400825e6:	202250        	or	a2, a2, a5
400825e9:	045122        	s16i	a2, a1, 8
400825ec:	ffc986        	j	40082516 <z_cbvprintf_impl+0x34a>
400825ef:	2158      	l32i.n	a5, a1, 8
400825f1:	d67c      	movi.n	a6, -3
400825f3:	045150        	extui	a5, a5, 1, 1
400825f6:	202520        	or	a2, a5, a2
400825f9:	041152        	l16ui	a5, a1, 8
400825fc:	042020        	extui	a2, a2, 0, 1
400825ff:	222a      	add.n	a2, a2, a2
40082601:	105560        	and	a5, a5, a6
40082604:	202520        	or	a2, a5, a2
40082607:	045122        	s16i	a2, a1, 8
4008260a:	041122        	l16ui	a2, a1, 8
4008260d:	336287        	bbci	a2, 8, 40082644 <z_cbvprintf_impl+0x478>
40082610:	544b      	addi.n	a5, a4, 4
40082612:	821c      	movi.n	a2, 24
40082614:	0ca257        	bge	a2, a5, 40082624 <z_cbvprintf_impl+0x458>
40082617:	012247        	blt	a2, a4, 4008261c <z_cbvprintf_impl+0x450>
4008261a:	452c      	movi.n	a5, 36
4008261c:	f128      	l32i.n	a2, a1, 60
4008261e:	054d      	mov.n	a4, a5
40082620:	000146        	j	40082629 <z_cbvprintf_impl+0x45d>
40082623:	00          	.byte 00
40082624:	102122        	l32i	a2, a1, 64
40082627:	054d      	mov.n	a4, a5
40082629:	225a      	add.n	a2, a2, a5
4008262b:	fcc222        	addi	a2, a2, -4
4008262e:	0258      	l32i.n	a5, a2, 0
40082630:	0185d6        	bgez	a5, 4008264c <z_cbvprintf_impl+0x480>
40082633:	041122        	l16ui	a2, a1, 8
40082636:	460c      	movi.n	a6, 4
40082638:	202260        	or	a2, a2, a6
4008263b:	045122        	s16i	a2, a1, 8
4008263e:	605050        	neg	a5, a5
40082641:	0001c6        	j	4008264c <z_cbvprintf_impl+0x480>
40082644:	f57c      	movi.n	a5, -1
40082646:	026277        	bbci	a2, 7, 4008264c <z_cbvprintf_impl+0x480>
40082649:	032152        	l32i	a5, a1, 12
4008264c:	041162        	l16ui	a6, a1, 8
4008264f:	3266a7        	bbci	a6, 10, 40082685 <z_cbvprintf_impl+0x4b9>
40082652:	644b      	addi.n	a6, a4, 4
40082654:	821c      	movi.n	a2, 24
40082656:	0ba267        	bge	a2, a6, 40082665 <z_cbvprintf_impl+0x499>
40082659:	012247        	blt	a2, a4, 4008265e <z_cbvprintf_impl+0x492>
4008265c:	462c      	movi.n	a6, 36
4008265e:	f128      	l32i.n	a2, a1, 60
40082660:	064d      	mov.n	a4, a6
40082662:	000106        	j	4008266a <z_cbvprintf_impl+0x49e>
40082665:	102122        	l32i	a2, a1, 64
40082668:	064d      	mov.n	a4, a6
4008266a:	226a      	add.n	a2, a2, a6
4008266c:	fcc222        	addi	a2, a2, -4
4008266f:	0228      	l32i.n	a2, a2, 0
40082671:	0172d6        	bgez	a2, 4008268c <z_cbvprintf_impl+0x4c0>
40082674:	041122        	l16ui	a2, a1, 8
40082677:	ffad62        	movi	a6, 0xfffffdff
4008267a:	102260        	and	a2, a2, a6
4008267d:	045122        	s16i	a2, a1, 8
40082680:	f27c      	movi.n	a2, -1
40082682:	000186        	j	4008268c <z_cbvprintf_impl+0x4c0>
40082685:	f27c      	movi.n	a2, -1
40082687:	016697        	bbci	a6, 9, 4008268c <z_cbvprintf_impl+0x4c0>
4008268a:	4128      	l32i.n	a2, a1, 16
4008268c:	21f8      	l32i.n	a15, a1, 8
4008268e:	060c      	movi.n	a6, 0
40082690:	3169      	s32i.n	a6, a1, 12
40082692:	4169      	s32i.n	a6, a1, 16
40082694:	2570f0        	extui	a7, a15, 16, 3
40082697:	346bf0        	extui	a6, a15, 11, 4
4008269a:	021726        	beqi	a7, 1, 400826a0 <z_cbvprintf_impl+0x4d4>
4008269d:	002806        	j	40082741 <z_cbvprintf_impl+0x575>
400826a0:	025666        	bnei	a6, 5, 400826a6 <z_cbvprintf_impl+0x4da>
400826a3:	004646        	j	400827c0 <z_cbvprintf_impl+0x5f4>
400826a6:	0b66f6        	bgeui	a6, 6, 400826b5 <z_cbvprintf_impl+0x4e9>
400826a9:	353626        	beqi	a6, 3, 400826e2 <z_cbvprintf_impl+0x516>
400826ac:	024666        	bnei	a6, 4, 400826b2 <z_cbvprintf_impl+0x4e6>
400826af:	004346        	j	400827c0 <z_cbvprintf_impl+0x5f4>
400826b2:	0001c6        	j	400826bd <z_cbvprintf_impl+0x4f1>
400826b5:	76ab      	addi.n	a7, a6, 10
400826b7:	347070        	extui	a7, a7, 0, 4
400826ba:	4027b6        	bltui	a7, 2, 400826fe <z_cbvprintf_impl+0x532>
400826bd:	a44b      	addi.n	a10, a4, 4
400826bf:	8b1c      	movi.n	a11, 24
400826c1:	102172        	l32i	a7, a1, 64
400826c4:	06aba7        	bge	a11, a10, 400826ce <z_cbvprintf_impl+0x502>
400826c7:	012b47        	blt	a11, a4, 400826cc <z_cbvprintf_impl+0x500>
400826ca:	4a2c      	movi.n	a10, 36
400826cc:	f178      	l32i.n	a7, a1, 60
400826ce:	77aa      	add.n	a7, a7, a10
400826d0:	fcc772        	addi	a7, a7, -4
400826d3:	0778      	l32i.n	a7, a7, 0
400826d5:	318f70        	srai	a8, a7, 31
400826d8:	0179      	s32i.n	a7, a1, 0
400826da:	1189      	s32i.n	a8, a1, 4
400826dc:	4c1666        	bnei	a6, 1, 4008272c <z_cbvprintf_impl+0x560>
400826df:	001006        	j	40082723 <z_cbvprintf_impl+0x557>
400826e2:	a44b      	addi.n	a10, a4, 4
400826e4:	8b1c      	movi.n	a11, 24
400826e6:	102172        	l32i	a7, a1, 64
400826e9:	07aba7        	bge	a11, a10, 400826f4 <z_cbvprintf_impl+0x528>
400826ec:	022b47        	blt	a11, a4, 400826f2 <z_cbvprintf_impl+0x526>
400826ef:	24a0a2        	movi	a10, 36
400826f2:	f178      	l32i.n	a7, a1, 60
400826f4:	77aa      	add.n	a7, a7, a10
400826f6:	fcc772        	addi	a7, a7, -4
400826f9:	0778      	l32i.n	a7, a7, 0
400826fb:	000e06        	j	40082737 <z_cbvprintf_impl+0x56b>
400826fe:	744b      	addi.n	a7, a4, 4
40082700:	8a1c      	movi.n	a10, 24
40082702:	0eaa77        	bge	a10, a7, 40082714 <z_cbvprintf_impl+0x548>
40082705:	012a47        	blt	a10, a4, 4008270a <z_cbvprintf_impl+0x53e>
40082708:	472c      	movi.n	a7, 36
4008270a:	f148      	l32i.n	a4, a1, 60
4008270c:	847a      	add.n	a8, a4, a7
4008270e:	fcc882        	addi	a8, a8, -4
40082711:	000106        	j	40082719 <z_cbvprintf_impl+0x54d>
40082714:	1021a2        	l32i	a10, a1, 64
40082717:	8a4a      	add.n	a8, a10, a4
40082719:	0888      	l32i.n	a8, a8, 0
4008271b:	0189      	s32i.n	a8, a1, 0
4008271d:	318f80        	srai	a8, a8, 31
40082720:	002186        	j	400827aa <z_cbvprintf_impl+0x5de>
40082723:	000172        	l8ui	a7, a1, 0
40082726:	237700        	sext	a7, a7, 7
40082729:	000286        	j	40082737 <z_cbvprintf_impl+0x56b>
4008272c:	042626        	beqi	a6, 2, 40082734 <z_cbvprintf_impl+0x568>
4008272f:	0053c6        	j	40082882 <z_cbvprintf_impl+0x6b6>
40082732:	00          	.byte 00
40082733:	00          	.byte 00
40082734:	237780        	sext	a7, a7, 15
40082737:	0179      	s32i.n	a7, a1, 0
40082739:	317f70        	srai	a7, a7, 31
4008273c:	1179      	s32i.n	a7, a1, 4
4008273e:	005006        	j	40082882 <z_cbvprintf_impl+0x6b6>
40082741:	022726        	beqi	a7, 2, 40082747 <z_cbvprintf_impl+0x57b>
40082744:	003706        	j	40082824 <z_cbvprintf_impl+0x658>
40082747:	755626        	beqi	a6, 5, 400827c0 <z_cbvprintf_impl+0x5f4>
4008274a:	0866f6        	bgeui	a6, 6, 40082756 <z_cbvprintf_impl+0x58a>
4008274d:	333626        	beqi	a6, 3, 40082784 <z_cbvprintf_impl+0x5b8>
40082750:	6c4626        	beqi	a6, 4, 400827c0 <z_cbvprintf_impl+0x5f4>
40082753:	000286        	j	40082761 <z_cbvprintf_impl+0x595>
40082756:	76ab      	addi.n	a7, a6, 10
40082758:	347070        	extui	a7, a7, 0, 4
4008275b:	0227f6        	bgeui	a7, 2, 40082761 <z_cbvprintf_impl+0x595>
4008275e:	0021c6        	j	400827e9 <z_cbvprintf_impl+0x61d>
40082761:	744b      	addi.n	a7, a4, 4
40082763:	8b1c      	movi.n	a11, 24
40082765:	1021a2        	l32i	a10, a1, 64
40082768:	06ab77        	bge	a11, a7, 40082772 <z_cbvprintf_impl+0x5a6>
4008276b:	012b47        	blt	a11, a4, 40082770 <z_cbvprintf_impl+0x5a4>
4008276e:	472c      	movi.n	a7, 36
40082770:	f1a8      	l32i.n	a10, a1, 60
40082772:	aa7a      	add.n	a10, a10, a7
40082774:	fccaa2        	addi	a10, a10, -4
40082777:	0a88      	l32i.n	a8, a10, 0
40082779:	0a0c      	movi.n	a10, 0
4008277b:	021666        	bnei	a6, 1, 40082781 <z_cbvprintf_impl+0x5b5>
4008277e:	002086        	j	40082804 <z_cbvprintf_impl+0x638>
40082781:	002346        	j	40082812 <z_cbvprintf_impl+0x646>
40082784:	0b01b2        	l8ui	a11, a1, 11
40082787:	63a0a2        	movi	a10, 99
4008278a:	744b      	addi.n	a7, a4, 4
4008278c:	209ba7        	bne	a11, a10, 400827b0 <z_cbvprintf_impl+0x5e4>
4008278f:	8b1c      	movi.n	a11, 24
40082791:	1021a2        	l32i	a10, a1, 64
40082794:	06ab77        	bge	a11, a7, 4008279e <z_cbvprintf_impl+0x5d2>
40082797:	012b47        	blt	a11, a4, 4008279c <z_cbvprintf_impl+0x5d0>
4008279a:	472c      	movi.n	a7, 36
4008279c:	f1a8      	l32i.n	a10, a1, 60
4008279e:	aa7a      	add.n	a10, a10, a7
400827a0:	fccaa2        	addi	a10, a10, -4
400827a3:	001a82        	l16ui	a8, a10, 0
400827a6:	0189      	s32i.n	a8, a1, 0
400827a8:	080c      	movi.n	a8, 0
400827aa:	1189      	s32i.n	a8, a1, 4
400827ac:	0016c6        	j	4008280b <z_cbvprintf_impl+0x63f>
400827af:	00          	.byte 00
400827b0:	4b1c      	movi.n	a11, 20
400827b2:	1021a2        	l32i	a10, a1, 64
400827b5:	41ab47        	bge	a11, a4, 400827fa <z_cbvprintf_impl+0x62e>
400827b8:	8a1c      	movi.n	a10, 24
400827ba:	3a2a47        	blt	a10, a4, 400827f8 <z_cbvprintf_impl+0x62c>
400827bd:	000d46        	j	400827f6 <z_cbvprintf_impl+0x62a>
400827c0:	a47b      	addi.n	a10, a4, 7
400827c2:	877c      	movi.n	a7, -8
400827c4:	10aa70        	and	a10, a10, a7
400827c7:	4a8b      	addi.n	a4, a10, 8
400827c9:	8b1c      	movi.n	a11, 24
400827cb:	102172        	l32i	a7, a1, 64
400827ce:	06ab47        	bge	a11, a4, 400827d8 <z_cbvprintf_impl+0x60c>
400827d1:	012ba7        	blt	a11, a10, 400827d6 <z_cbvprintf_impl+0x60a>
400827d4:	842c      	movi.n	a4, 40
400827d6:	f178      	l32i.n	a7, a1, 60
400827d8:	774a      	add.n	a7, a7, a4
400827da:	f8c772        	addi	a7, a7, -8
400827dd:	07a8      	l32i.n	a10, a7, 0
400827df:	17b8      	l32i.n	a11, a7, 4
400827e1:	01a9      	s32i.n	a10, a1, 0
400827e3:	11b9      	s32i.n	a11, a1, 4
400827e5:	0026c6        	j	40082884 <z_cbvprintf_impl+0x6b8>
400827e8:	00          	.byte 00
400827e9:	744b      	addi.n	a7, a4, 4
400827eb:	8b1c      	movi.n	a11, 24
400827ed:	1021a2        	l32i	a10, a1, 64
400827f0:	06ab77        	bge	a11, a7, 400827fa <z_cbvprintf_impl+0x62e>
400827f3:	012b47        	blt	a11, a4, 400827f8 <z_cbvprintf_impl+0x62c>
400827f6:	472c      	movi.n	a7, 36
400827f8:	f1a8      	l32i.n	a10, a1, 60
400827fa:	aa7a      	add.n	a10, a10, a7
400827fc:	fccaa2        	addi	a10, a10, -4
400827ff:	0a88      	l32i.n	a8, a10, 0
40082801:	ffe846        	j	400827a6 <z_cbvprintf_impl+0x5da>
40082804:	748080        	extui	a8, a8, 0, 8
40082807:	0189      	s32i.n	a8, a1, 0
40082809:	11a9      	s32i.n	a10, a1, 4
4008280b:	074d      	mov.n	a4, a7
4008280d:	001cc6        	j	40082884 <z_cbvprintf_impl+0x6b8>
40082810:	00          	.byte 00
40082811:	00          	.byte 00
40082812:	0189      	s32i.n	a8, a1, 0
40082814:	11a9      	s32i.n	a10, a1, 4
40082816:	022626        	beqi	a6, 2, 4008281c <z_cbvprintf_impl+0x650>
40082819:	fffb86        	j	4008280b <z_cbvprintf_impl+0x63f>
4008281c:	f48080        	extui	a8, a8, 0, 16
4008281f:	0189      	s32i.n	a8, a1, 0
40082821:	fff986        	j	4008280b <z_cbvprintf_impl+0x63f>
40082824:	3c4766        	bnei	a7, 4, 40082864 <z_cbvprintf_impl+0x698>
40082827:	a47b      	addi.n	a10, a4, 7
40082829:	877c      	movi.n	a7, -8
4008282b:	10aa70        	and	a10, a10, a7
4008282e:	4a8b      	addi.n	a4, a10, 8
40082830:	0d8666        	bnei	a6, 8, 40082841 <z_cbvprintf_impl+0x675>
40082833:	8b1c      	movi.n	a11, 24
40082835:	102172        	l32i	a7, a1, 64
40082838:	16ab47        	bge	a11, a4, 40082852 <z_cbvprintf_impl+0x686>
4008283b:	112ba7        	blt	a11, a10, 40082850 <z_cbvprintf_impl+0x684>
4008283e:	000306        	j	4008284e <z_cbvprintf_impl+0x682>
40082841:	0b1c      	movi.n	a11, 16
40082843:	102172        	l32i	a7, a1, 64
40082846:	08aba7        	bge	a11, a10, 40082852 <z_cbvprintf_impl+0x686>
40082849:	871c      	movi.n	a7, 24
4008284b:	0127a7        	blt	a7, a10, 40082850 <z_cbvprintf_impl+0x684>
4008284e:	842c      	movi.n	a4, 40
40082850:	f178      	l32i.n	a7, a1, 60
40082852:	774a      	add.n	a7, a7, a4
40082854:	f8c772        	addi	a7, a7, -8
40082857:	07a8      	l32i.n	a10, a7, 0
40082859:	17b8      	l32i.n	a11, a7, 4
4008285b:	01a9      	s32i.n	a10, a1, 0
4008285d:	11b9      	s32i.n	a11, a1, 4
4008285f:	000846        	j	40082884 <z_cbvprintf_impl+0x6b8>
40082862:	00          	.byte 00
40082863:	00          	.byte 00
40082864:	1c3766        	bnei	a7, 3, 40082884 <z_cbvprintf_impl+0x6b8>
40082867:	a44b      	addi.n	a10, a4, 4
40082869:	8b1c      	movi.n	a11, 24
4008286b:	102172        	l32i	a7, a1, 64
4008286e:	06aba7        	bge	a11, a10, 40082878 <z_cbvprintf_impl+0x6ac>
40082871:	012b47        	blt	a11, a4, 40082876 <z_cbvprintf_impl+0x6aa>
40082874:	4a2c      	movi.n	a10, 36
40082876:	f178      	l32i.n	a7, a1, 60
40082878:	77aa      	add.n	a7, a7, a10
4008287a:	fcc772        	addi	a7, a7, -4
4008287d:	0778      	l32i.n	a7, a7, 0
4008287f:	006172        	s32i	a7, a1, 0
40082882:	0a4d      	mov.n	a4, a10
40082884:	14f0f0        	extui	a15, a15, 0, 2
40082887:	017f16        	beqz	a15, 400828a2 <z_cbvprintf_impl+0x6d6>
4008288a:	1321d2        	l32i	a13, a1, 76
4008288d:	1221b2        	l32i	a11, a1, 72
40082890:	1121a2        	l32i	a10, a1, 68
40082893:	20c990        	or	a12, a9, a9
40082896:	002ba5        	call8	40082b50 <outs>
40082899:	2aca96        	bltz	a10, 40082b49 <z_cbvprintf_impl+0x97d>
4008289c:	8033a0        	add	a3, a3, a10
4008289f:	00a646        	j	40082b3c <z_cbvprintf_impl+0x970>
400828a2:	0b01a2        	l8ui	a10, a1, 11
400828a5:	78a072        	movi	a7, 120
400828a8:	02b7a7        	bgeu	a7, a10, 400828ae <z_cbvprintf_impl+0x6e2>
400828ab:	00a346        	j	40082b3c <z_cbvprintf_impl+0x970>
400828ae:	62a072        	movi	a7, 98
400828b1:	0f37a7        	bltu	a7, a10, 400828c4 <z_cbvprintf_impl+0x6f8>
400828b4:	562c      	movi.n	a6, 37
400828b6:	231a67        	beq	a10, a6, 400828dd <z_cbvprintf_impl+0x711>
400828b9:	865c      	movi.n	a6, 88
400828bb:	029a67        	bne	a10, a6, 400828c1 <z_cbvprintf_impl+0x6f5>
400828be:	002486        	j	40082954 <z_cbvprintf_impl+0x788>
400828c1:	009dc6        	j	40082b3c <z_cbvprintf_impl+0x970>
400828c4:	9dcaa2        	addi	a10, a10, -99
400828c7:	74a0a0        	extui	a10, a10, 0, 8
400828ca:	571c      	movi.n	a7, 21
400828cc:	02b7a7        	bgeu	a7, a10, 400828d2 <z_cbvprintf_impl+0x706>
400828cf:	009a46        	j	40082b3c <z_cbvprintf_impl+0x970>
400828d2:	f72071        	l32r	a7, 40080554 <_init_end+0x154> (3ffb00a0 <levels$0+0x20>)
400828d5:	a0aa70        	addx4	a10, a10, a7
400828d8:	0a78      	l32i.n	a7, a10, 0
400828da:	0007a0        	jx	a7
400828dd:	1221b2        	l32i	a11, a1, 72
400828e0:	112122        	l32i	a2, a1, 68
400828e3:	0002e0        	callx8	a2
400828e6:	25fa96        	bltz	a10, 40082b49 <z_cbvprintf_impl+0x97d>
400828e9:	331b      	addi.n	a3, a3, 1
400828eb:	009346        	j	40082b3c <z_cbvprintf_impl+0x970>
400828ee:	002162        	l32i	a6, a1, 0
400828f1:	00b296        	bltz	a2, 40082900 <z_cbvprintf_impl+0x734>
400828f4:	20b220        	or	a11, a2, a2
400828f7:	20a660        	or	a10, a6, a6
400828fa:	50ce65        	call8	400d35e0 <strnlen>
400828fd:	000146        	j	40082906 <z_cbvprintf_impl+0x73a>
40082900:	20a660        	or	a10, a6, a6
40082903:	002fe5        	call8	40082c00 <strlen>
40082906:	8076a0        	add	a7, a6, a10
40082909:	00a0f2        	movi	a15, 0
4008290c:	108656        	bnez	a6, 40082a18 <z_cbvprintf_impl+0x84c>
4008290f:	008a46        	j	40082b3c <z_cbvprintf_impl+0x970>
40082912:	0128      	l32i.n	a2, a1, 0
40082914:	18c162        	addi	a6, a1, 24
40082917:	184122        	s8i	a2, a1, 24
4008291a:	19c172        	addi	a7, a1, 25
4008291d:	0f0c      	movi.n	a15, 0
4008291f:	1a0c      	movi.n	a10, 1
40082921:	003cc6        	j	40082a18 <z_cbvprintf_impl+0x84c>
40082924:	041162        	l16ui	a6, a1, 8
40082927:	bf2c      	movi.n	a15, 43
40082929:	05e637        	bbsi	a6, 3, 40082932 <z_cbvprintf_impl+0x766>
4008292c:	046460        	extui	a6, a6, 4, 1
4008292f:	11f6b0        	slli	a15, a6, 5
40082932:	1168      	l32i.n	a6, a1, 4
40082934:	01a8      	l32i.n	a10, a1, 0
40082936:	01a6d6        	bgez	a6, 40082954 <z_cbvprintf_impl+0x788>
40082939:	60a0a0        	neg	a10, a10
4008293c:	170c      	movi.n	a7, 1
4008293e:	0b0c      	movi.n	a11, 0
40082940:	837ba0        	moveqz	a7, a11, a10
40082943:	606060        	neg	a6, a6
40082946:	c06670        	sub	a6, a6, a7
40082949:	01a9      	s32i.n	a10, a1, 0
4008294b:	1169      	s32i.n	a6, a1, 4
4008294d:	df2c      	movi.n	a15, 45
4008294f:	000046        	j	40082954 <z_cbvprintf_impl+0x788>
40082952:	0f0c      	movi.n	a15, 0
40082954:	0021a2        	l32i	a10, a1, 0
40082957:	0121b2        	l32i	a11, a1, 4
4008295a:	1661f2        	s32i	a15, a1, 88
4008295d:	2ec1e2        	addi	a14, a1, 46
40082960:	18c1d2        	addi	a13, a1, 24
40082963:	08c1c2        	addi	a12, a1, 8
40082966:	ff7ae5        	call8	40082114 <encode_uint>
40082969:	1621f2        	l32i	a15, a1, 88
4008296c:	0a6d      	mov.n	a6, a10
4008296e:	086296        	bltz	a2, 400829f8 <z_cbvprintf_impl+0x82c>
40082971:	0411a2        	l16ui	a10, a1, 8
40082974:	bfafb2        	movi	a11, -65
40082977:	2ec172        	addi	a7, a1, 46
4008297a:	10aab0        	and	a10, a10, a11
4008297d:	c07760        	sub	a7, a7, a6
40082980:	0451a2        	s16i	a10, a1, 8
40082983:	71b727        	bgeu	a7, a2, 400829f8 <z_cbvprintf_impl+0x82c>
40082986:	c07270        	sub	a7, a2, a7
40082989:	3179      	s32i.n	a7, a1, 12
4008298b:	001a46        	j	400829f8 <z_cbvprintf_impl+0x82c>
4008298e:	0021a2        	l32i	a10, a1, 0
40082991:	077a16        	beqz	a10, 40082a0c <z_cbvprintf_impl+0x840>
40082994:	2ec172        	addi	a7, a1, 46
40082997:	00a0b2        	movi	a11, 0
4008299a:	20e770        	or	a14, a7, a7
4008299d:	18c1d2        	addi	a13, a1, 24
400829a0:	c18b      	addi.n	a12, a1, 8
400829a2:	ff7725        	call8	40082114 <encode_uint>
400829a5:	0a6d      	mov.n	a6, a10
400829a7:	0511a2        	l16ui	a10, a1, 10
400829aa:	efa0b2        	movi	a11, 239
400829ad:	10aab0        	and	a10, a10, a11
400829b0:	81a7b2        	movi	a11, 0x781
400829b3:	11bbc0        	slli	a11, a11, 4
400829b6:	20aab0        	or	a10, a10, a11
400829b9:	0551a2        	s16i	a10, a1, 10
400829bc:	0f0c      	movi.n	a15, 0
400829be:	afa2f7        	bge	a2, a15, 40082971 <z_cbvprintf_impl+0x7a5>
400829c1:	c0a760        	sub	a10, a7, a6
400829c4:	5096f7        	bne	a6, a15, 40082a18 <z_cbvprintf_impl+0x84c>
400829c7:	005c46        	j	40082b3c <z_cbvprintf_impl+0x970>
400829ca:	0128      	l32i.n	a2, a1, 0
400829cc:	0286b6        	bltui	a6, 8, 400829d2 <z_cbvprintf_impl+0x806>
400829cf:	005a46        	j	40082b3c <z_cbvprintf_impl+0x970>
400829d2:	f6e151        	l32r	a5, 40080558 <_init_end+0x158> (3ffb00f8 <levels$0+0x78>)
400829d5:	a06650        	addx4	a6, a6, a5
400829d8:	0658      	l32i.n	a5, a6, 0
400829da:	0005a0        	jx	a5
400829dd:	004232        	s8i	a3, a2, 0
400829e0:	005606        	j	40082b3c <z_cbvprintf_impl+0x970>
400829e3:	005232        	s16i	a3, a2, 0
400829e6:	005486        	j	40082b3c <z_cbvprintf_impl+0x970>
400829e9:	315f30        	srai	a5, a3, 31
400829ec:	0239      	s32i.n	a3, a2, 0
400829ee:	1259      	s32i.n	a5, a2, 4
400829f0:	005206        	j	40082b3c <z_cbvprintf_impl+0x970>
400829f3:	0239      	s32i.n	a3, a2, 0
400829f5:	0050c6        	j	40082b3c <z_cbvprintf_impl+0x970>
400829f8:	140616        	beqz	a6, 40082b3c <z_cbvprintf_impl+0x970>
400829fb:	2ec122        	addi	a2, a1, 46
400829fe:	c0a260        	sub	a10, a2, a6
40082a01:	027d      	mov.n	a7, a2
40082a03:	1f9c      	beqz.n	a15, 40082a18 <z_cbvprintf_impl+0x84c>
40082a05:	aa1b      	addi.n	a10, a10, 1
40082a07:	000346        	j	40082a18 <z_cbvprintf_impl+0x84c>
40082a0a:	00          	.byte 00
40082a0b:	00          	.byte 00
40082a0c:	f6cb61        	l32r	a6, 40080538 <_init_end+0x138> (3ffb0118 <levels$0+0x98>)
40082a0f:	f6cb71        	l32r	a7, 4008053c <_init_end+0x13c> (3ffb011d <levels$0+0x9d>)
40082a12:	20faa0        	or	a15, a10, a10
40082a15:	05a0a2        	movi	a10, 5
40082a18:	0a01b2        	l8ui	a11, a1, 10
40082a1b:	021c      	movi.n	a2, 16
40082a1d:	102b20        	and	a2, a11, a2
40082a20:	146122        	s32i	a2, a1, 80
40082a23:	528c      	beqz.n	a2, 40082a2c <z_cbvprintf_impl+0x860>
40082a25:	aa2b      	addi.n	a10, a10, 2
40082a27:	000186        	j	40082a31 <z_cbvprintf_impl+0x865>
40082a2a:	00          	.byte 00
40082a2b:	00          	.byte 00
40082a2c:	016b37        	bbci	a11, 3, 40082a31 <z_cbvprintf_impl+0x865>
40082a2f:	aa1b      	addi.n	a10, a10, 1
40082a31:	3128      	l32i.n	a2, a1, 12
40082a33:	aa2a      	add.n	a10, a10, a2
40082a35:	036b67        	bbci	a11, 6, 40082a3c <z_cbvprintf_impl+0x870>
40082a38:	41b8      	l32i.n	a11, a1, 16
40082a3a:	aaba      	add.n	a10, a10, a11
40082a3c:	6c15a6        	blti	a5, 1, 40082aac <z_cbvprintf_impl+0x8e0>
40082a3f:	21c8      	l32i.n	a12, a1, 8
40082a41:	c055a0        	sub	a5, a5, a10
40082a44:	04c2c0        	extui	a12, a12, 2, 1
40082a47:	061c56        	bnez	a12, 40082aac <z_cbvprintf_impl+0x8e0>
40082a4a:	0411a2        	l16ui	a10, a1, 8
40082a4d:	436a67        	bbci	a10, 6, 40082a94 <z_cbvprintf_impl+0x8c8>
40082a50:	046f16        	beqz	a15, 40082a9a <z_cbvprintf_impl+0x8ce>
40082a53:	1221b2        	l32i	a11, a1, 72
40082a56:	112182        	l32i	a8, a1, 68
40082a59:	1761c2        	s32i	a12, a1, 92
40082a5c:	0fad      	mov.n	a10, a15
40082a5e:	0008e0        	callx8	a8
40082a61:	1721c2        	l32i	a12, a1, 92
40082a64:	0e1a96        	bltz	a10, 40082b49 <z_cbvprintf_impl+0x97d>
40082a67:	331b      	addi.n	a3, a3, 1
40082a69:	0d3c      	movi.n	a13, 48
40082a6b:	0cfd      	mov.n	a15, a12
40082a6d:	000ac6        	j	40082a9c <z_cbvprintf_impl+0x8d0>
40082a70:	1221b2        	l32i	a11, a1, 72
40082a73:	112182        	l32i	a8, a1, 68
40082a76:	0dad      	mov.n	a10, a13
40082a78:	1761c2        	s32i	a12, a1, 92
40082a7b:	1561d2        	s32i	a13, a1, 84
40082a7e:	1661f2        	s32i	a15, a1, 88
40082a81:	0008e0        	callx8	a8
40082a84:	1721c2        	l32i	a12, a1, 92
40082a87:	1521d2        	l32i	a13, a1, 84
40082a8a:	1621f2        	l32i	a15, a1, 88
40082a8d:	00dad6        	bgez	a10, 40082a9e <z_cbvprintf_impl+0x8d2>
40082a90:	002d46        	j	40082b49 <z_cbvprintf_impl+0x97d>
40082a93:	00          	.byte 00
40082a94:	0d2c      	movi.n	a13, 32
40082a96:	000086        	j	40082a9c <z_cbvprintf_impl+0x8d0>
40082a99:	00          	.byte 00
40082a9a:	0d3c      	movi.n	a13, 48
40082a9c:	05cd      	mov.n	a12, a5
40082a9e:	0cad      	mov.n	a10, a12
40082aa0:	cc0b      	addi.n	a12, a12, -1
40082aa2:	ca1ae6        	bgei	a10, 1, 40082a70 <z_cbvprintf_impl+0x8a4>
40082aa5:	953a      	add.n	a9, a5, a3
40082aa7:	c039a0        	sub	a3, a9, a10
40082aaa:	0c5d      	mov.n	a5, a12
40082aac:	ef8c      	beqz.n	a15, 40082abe <z_cbvprintf_impl+0x8f2>
40082aae:	1221b2        	l32i	a11, a1, 72
40082ab1:	112182        	l32i	a8, a1, 68
40082ab4:	0fad      	mov.n	a10, a15
40082ab6:	0008e0        	callx8	a8
40082ab9:	08ca96        	bltz	a10, 40082b49 <z_cbvprintf_impl+0x97d>
40082abc:	331b      	addi.n	a3, a3, 1
40082abe:	21a8      	l32i.n	a10, a1, 8
40082ac0:	02fa47        	bbsi	a10, 20, 40082ac6 <z_cbvprintf_impl+0x8fa>
40082ac3:	0f7a37        	bbci	a10, 19, 40082ad6 <z_cbvprintf_impl+0x90a>
40082ac6:	1221b2        	l32i	a11, a1, 72
40082ac9:	112182        	l32i	a8, a1, 68
40082acc:	0a3c      	movi.n	a10, 48
40082ace:	0008e0        	callx8	a8
40082ad1:	074a96        	bltz	a10, 40082b49 <z_cbvprintf_impl+0x97d>
40082ad4:	331b      	addi.n	a3, a3, 1
40082ad6:	142182        	l32i	a8, a1, 80
40082ad9:	78ac      	beqz.n	a8, 40082b04 <z_cbvprintf_impl+0x938>
40082adb:	1221b2        	l32i	a11, a1, 72
40082ade:	0b01a2        	l8ui	a10, a1, 11
40082ae1:	112182        	l32i	a8, a1, 68
40082ae4:	0008e0        	callx8	a8
40082ae7:	05ea96        	bltz	a10, 40082b49 <z_cbvprintf_impl+0x97d>
40082aea:	331b      	addi.n	a3, a3, 1
40082aec:	000506        	j	40082b04 <z_cbvprintf_impl+0x938>
40082aef:	00          	.byte 00
40082af0:	00          	.byte 00
40082af1:	1221b2        	l32i	a11, a1, 72
40082af4:	112182        	l32i	a8, a1, 68
40082af7:	0a3c      	movi.n	a10, 48
40082af9:	0008e0        	callx8	a8
40082afc:	049a96        	bltz	a10, 40082b49 <z_cbvprintf_impl+0x97d>
40082aff:	331b      	addi.n	a3, a3, 1
40082b01:	000086        	j	40082b07 <z_cbvprintf_impl+0x93b>
40082b04:	802230        	add	a2, a2, a3
40082b07:	c0a230        	sub	a10, a2, a3
40082b0a:	e31ae6        	bgei	a10, 1, 40082af1 <z_cbvprintf_impl+0x925>
40082b0d:	1221b2        	l32i	a11, a1, 72
40082b10:	1121a2        	l32i	a10, a1, 68
40082b13:	20d770        	or	a13, a7, a7
40082b16:	20c660        	or	a12, a6, a6
40082b19:	000365        	call8	40082b50 <outs>
40082b1c:	029a96        	bltz	a10, 40082b49 <z_cbvprintf_impl+0x97d>
40082b1f:	3a3a      	add.n	a3, a10, a3
40082b21:	553a      	add.n	a5, a5, a3
40082b23:	0003c6        	j	40082b36 <z_cbvprintf_impl+0x96a>
40082b26:	1221b2        	l32i	a11, a1, 72
40082b29:	112122        	l32i	a2, a1, 68
40082b2c:	0a2c      	movi.n	a10, 32
40082b2e:	0002e0        	callx8	a2
40082b31:	014a96        	bltz	a10, 40082b49 <z_cbvprintf_impl+0x97d>
40082b34:	331b      	addi.n	a3, a3, 1
40082b36:	c02530        	sub	a2, a5, a3
40082b39:	e912e6        	bgei	a2, 1, 40082b26 <z_cbvprintf_impl+0x95a>
40082b3c:	132192        	l32i	a9, a1, 76
40082b3f:	000922        	l8ui	a2, a9, 0
40082b42:	128c      	beqz.n	a2, 40082b47 <z_cbvprintf_impl+0x97b>
40082b44:	fda846        	j	400821e9 <z_cbvprintf_impl+0x1d>
40082b47:	03ad      	mov.n	a10, a3
40082b49:	0a2d      	mov.n	a2, a10
40082b4b:	f01d      	retw.n
40082b4d:	000000        	ill

40082b50 <outs>:
40082b50:	004136        	entry	a1, 32
40082b53:	046d      	mov.n	a6, a4
40082b55:	000306        	j	40082b65 <outs+0x15>
40082b58:	0006a2        	l8ui	a10, a6, 0
40082b5b:	03bd      	mov.n	a11, a3
40082b5d:	0002e0        	callx8	a2
40082b60:	661b      	addi.n	a6, a6, 1
40082b62:	013a96        	bltz	a10, 40082b79 <outs+0x29>
40082b65:	ef3657        	bltu	a6, a5, 40082b58 <outs+0x8>
40082b68:	458c      	beqz.n	a5, 40082b70 <outs+0x20>
40082b6a:	c0a640        	sub	a10, a6, a4
40082b6d:	000206        	j	40082b79 <outs+0x29>
40082b70:	000682        	l8ui	a8, a6, 0
40082b73:	fe1856        	bnez	a8, 40082b58 <outs+0x8>
40082b76:	fffc06        	j	40082b6a <outs+0x1a>
40082b79:	0a2d      	mov.n	a2, a10
40082b7b:	f01d      	retw.n
40082b7d:	000000        	ill

40082b80 <char_out>:
40082b80:	004136        	entry	a1, 32
40082b83:	f67681        	l32r	a8, 4008055c <_init_end+0x15c> (3ffb0000 <_char_out>)
40082b86:	02ad      	mov.n	a10, a2
40082b88:	0888      	l32i.n	a8, a8, 0
40082b8a:	0008e0        	callx8	a8
40082b8d:	0a2d      	mov.n	a2, a10
40082b8f:	f01d      	retw.n
40082b91:	000000        	ill

40082b94 <vprintk>:
40082b94:	00a136        	entry	a1, 80
40082b97:	00a0b2        	movi	a11, 0
40082b9a:	f671a1        	l32r	a10, 40080560 <_init_end+0x160> (40082b80 <char_out>)
40082b9d:	0061b2        	s32i	a11, a1, 0
40082ba0:	20d330        	or	a13, a3, a3
40082ba3:	04ed      	mov.n	a14, a4
40082ba5:	05fd      	mov.n	a15, a5
40082ba7:	02cd      	mov.n	a12, a2
40082ba9:	ff6225        	call8	400821cc <z_cbvprintf_impl>
40082bac:	f01d      	retw.n
	...

40082bb0 <printk>:
40082bb0:	00a136        	entry	a1, 80
40082bb3:	10c1c2        	addi	a12, a1, 16
40082bb6:	30c1b2        	addi	a11, a1, 48
40082bb9:	4d0c      	movi.n	a13, 4
40082bbb:	5139      	s32i.n	a3, a1, 20
40082bbd:	6149      	s32i.n	a4, a1, 24
40082bbf:	7159      	s32i.n	a5, a1, 28
40082bc1:	8169      	s32i.n	a6, a1, 32
40082bc3:	9179      	s32i.n	a7, a1, 36
40082bc5:	02ad      	mov.n	a10, a2
40082bc7:	11c9      	s32i.n	a12, a1, 4
40082bc9:	01b9      	s32i.n	a11, a1, 0
40082bcb:	21d9      	s32i.n	a13, a1, 8
40082bcd:	fffc65        	call8	40082b94 <vprintk>
40082bd0:	f01d      	retw.n
	...

40082bd4 <console_out>:
40082bd4:	004136        	entry	a1, 32
40082bd7:	f66331        	l32r	a3, 40080564 <_init_end+0x164> (3f400e98 <__device_dts_ord_61>)
40082bda:	0a9266        	bnei	a2, 10, 40082be8 <console_out+0x14>
40082bdd:	2388      	l32i.n	a8, a3, 8
40082bdf:	db0c      	movi.n	a11, 13
40082be1:	1888      	l32i.n	a8, a8, 4
40082be3:	03ad      	mov.n	a10, a3
40082be5:	0008e0        	callx8	a8
40082be8:	2388      	l32i.n	a8, a3, 8
40082bea:	74b020        	extui	a11, a2, 0, 8
40082bed:	1888      	l32i.n	a8, a8, 4
40082bef:	03ad      	mov.n	a10, a3
40082bf1:	0008e0        	callx8	a8
40082bf4:	f01d      	retw.n
	...

40082bf8 <__start>:
40082bf8:	004136        	entry	a1, 32
40082bfb:	fd96e5        	call8	40080568 <__esp_platform_start>
40082bfe:	f01d      	retw.n

40082c00 <strlen>:
40082c00:	004136        	entry	a1, 32
40082c03:	080c      	movi.n	a8, 0
40082c05:	000046        	j	40082c0a <strlen+0xa>
40082c08:	881b      	addi.n	a8, a8, 1
40082c0a:	928a      	add.n	a9, a2, a8
40082c0c:	000992        	l8ui	a9, a9, 0
40082c0f:	ff5956        	bnez	a9, 40082c08 <strlen+0x8>
40082c12:	082d      	mov.n	a2, a8
40082c14:	f01d      	retw.n
	...

40082c18 <memcpy>:
40082c18:	004136        	entry	a1, 32
40082c1b:	308230        	xor	a8, a2, a3
40082c1e:	148080        	extui	a8, a8, 0, 2
40082c21:	38dc      	bnez.n	a8, 40082c38 <memcpy+0x20>
40082c23:	028d      	mov.n	a8, a2
40082c25:	000946        	j	40082c4e <memcpy+0x36>
40082c28:	419240        	srli	a9, a4, 2
40082c2b:	1199e0        	slli	a9, a9, 2
40082c2e:	c04490        	sub	a4, a4, a9
40082c31:	889a      	add.n	a8, a8, a9
40082c33:	339a      	add.n	a3, a3, a9
40082c35:	000046        	j	40082c3a <memcpy+0x22>
40082c38:	028d      	mov.n	a8, a2
40082c3a:	090c      	movi.n	a9, 0
40082c3c:	000d86        	j	40082c76 <memcpy+0x5e>
40082c3f:	00          	.byte 00
40082c40:	54bc      	beqz.n	a4, 40082c79 <memcpy+0x61>
40082c42:	000392        	l8ui	a9, a3, 0
40082c45:	440b      	addi.n	a4, a4, -1
40082c47:	004892        	s8i	a9, a8, 0
40082c4a:	331b      	addi.n	a3, a3, 1
40082c4c:	881b      	addi.n	a8, a8, 1
40082c4e:	149080        	extui	a9, a8, 0, 2
40082c51:	feb956        	bnez	a9, 40082c40 <memcpy+0x28>
40082c54:	000246        	j	40082c61 <memcpy+0x49>
40082c57:	b39a      	add.n	a11, a3, a9
40082c59:	0bb8      	l32i.n	a11, a11, 0
40082c5b:	a89a      	add.n	a10, a8, a9
40082c5d:	0ab9      	s32i.n	a11, a10, 0
40082c5f:	994b      	addi.n	a9, a9, 4
40082c61:	c0a490        	sub	a10, a4, a9
40082c64:	ef4af6        	bgeui	a10, 4, 40082c57 <memcpy+0x3f>
40082c67:	ffef46        	j	40082c28 <memcpy+0x10>
40082c6a:	b39a      	add.n	a11, a3, a9
40082c6c:	000bb2        	l8ui	a11, a11, 0
40082c6f:	a89a      	add.n	a10, a8, a9
40082c71:	004ab2        	s8i	a11, a10, 0
40082c74:	991b      	addi.n	a9, a9, 1
40082c76:	f09497        	bne	a4, a9, 40082c6a <memcpy+0x52>
40082c79:	f01d      	retw.n
	...

40082c7c <memset>:
40082c7c:	004136        	entry	a1, 32
40082c7f:	74b030        	extui	a11, a3, 0, 8
40082c82:	028d      	mov.n	a8, a2
40082c84:	000286        	j	40082c92 <memset+0x16>
40082c87:	00          	.byte 00
40082c88:	041416        	beqz	a4, 40082ccd <memset+0x51>
40082c8b:	0048b2        	s8i	a11, a8, 0
40082c8e:	440b      	addi.n	a4, a4, -1
40082c90:	881b      	addi.n	a8, a8, 1
40082c92:	14a080        	extui	a10, a8, 0, 2
40082c95:	089d      	mov.n	a9, a8
40082c97:	feda56        	bnez	a10, 40082c88 <memset+0xc>
40082c9a:	743030        	extui	a3, a3, 0, 8
40082c9d:	11a380        	slli	a10, a3, 8
40082ca0:	aa3a      	add.n	a10, a10, a3
40082ca2:	113a00        	slli	a3, a10, 16
40082ca5:	aa3a      	add.n	a10, a10, a3
40082ca7:	413240        	srli	a3, a4, 2
40082caa:	11c3e0        	slli	a12, a3, 2
40082cad:	a03380        	addx4	a3, a3, a8
40082cb0:	000106        	j	40082cb8 <memset+0x3c>
40082cb3:	00          	.byte 00
40082cb4:	08a9      	s32i.n	a10, a8, 0
40082cb6:	884b      	addi.n	a8, a8, 4
40082cb8:	f89837        	bne	a8, a3, 40082cb4 <memset+0x38>
40082cbb:	89ca      	add.n	a8, a9, a12
40082cbd:	144040        	extui	a4, a4, 0, 2
40082cc0:	448a      	add.n	a4, a4, a8
40082cc2:	000106        	j	40082cca <memset+0x4e>
40082cc5:	0048b2        	s8i	a11, a8, 0
40082cc8:	881b      	addi.n	a8, a8, 1
40082cca:	f79847        	bne	a8, a4, 40082cc5 <memset+0x49>
40082ccd:	f01d      	retw.n
	...

Disassembly of section .flash.text:

400d0020 <_image_irom_vaddr>:
400d0020:	3f400968 	
400d0024:	3f40097d 	
400d0028:	3ffb0000 	
400d002c:	f7ffffff 	
400d0030:	04c4b400 	
400d0034:	000f4240 	
400d0038:	ff0fffff 	
400d003c:	000fffff 	
400d0040:	ff80ffff 	
400d0044:	ff7fffff 	
400d0048:	ffff7fff 	
400d004c:	ffff80ff 	
400d0050:	fffeffff 	
400d0054:	80ffffff 	
400d0058:	7fffffff 	
400d005c:	3ff40000 	
400d0060:	3ff50000 	
400d0064:	3ff6e000 	
400d0068:	3ff40000 	
400d006c:	3ff50000 	
400d0070:	60010000 	
400d0074:	6002e000 	
400d0078:	00e4e1bf 	
400d007c:	3ffb0004 	
400d0080:	3f400a09 	
400d0084:	3f4009b9 	
400d0088:	40007d54 	
400d008c:	3f400040 	
400d0090:	40009278 	
400d0094:	4000cff8 	
400d0098:	3ff48050 	
400d009c:	3ff5a014 	
400d00a0:	3f400a05 	
400d00a4:	3f400a0d 	
400d00a8:	3ff0003c 	
400d00ac:	3ff4807c 	
400d00b0:	ffffc7ff 	
400d00b4:	3ff48070 	
400d00b8:	e7ffffff 	
400d00bc:	3ff480b4 	
400d00c0:	4c4b4c4b 	
400d00c4:	3ff48000 	
400d00c8:	3ffb1468 	
400d00cc:	3ff48030 	
400d00d0:	3ff4848c 	
400d00d4:	e73ff7df 	
400d00d8:	ffcfffff 	
400d00dc:	fff7ffff 	
400d00e0:	fff9ffff 	
400d00e4:	3ff4801c 	
400d00e8:	ffffc03f 	
400d00ec:	40008534 	
400d00f0:	3fffffff 	
400d00f4:	dfffffff 	
400d00f8:	3f400ac1 	
400d00fc:	3f400ab0 	
400d0100:	3f400a9f 	
400d0104:	3f400a8e 	
400d0108:	3f400a7d 	
400d010c:	3f400a6c 	
400d0110:	3f400a5b 	
400d0114:	3ff480b0 	
400d0118:	0000fffe 	
400d011c:	3ff66000 	
400d0120:	3f400a2b 	
400d0124:	00010001 	
400d0128:	3ff66004 	
400d012c:	fffbfabf 	
400d0130:	081b081b 	
400d0134:	0ffff000 	
400d0138:	0007a120 	
400d013c:	431bde83 	
400d0140:	23ffffff 	
400d0144:	00ffffff 	
400d0148:	ff003fff 	
400d014c:	3ff48078 	
400d0150:	f1ffffff 	
400d0154:	fe3fffff 	
400d0158:	3ff00044 	
400d015c:	fffff7ff 	
400d0160:	3ff0005c 	
400d0164:	3ff00094 	
400d0168:	3ff000a0 	
400d016c:	3ff000a4 	
400d0170:	3ff000ac 	
400d0174:	fbffffff 	
400d0178:	ffffdfff 	
400d017c:	ffbfffff 	
400d0180:	feffffff 	
400d0184:	efffffff 	
400d0188:	3ff48084 	
400d018c:	ffefffff 	
400d0190:	fffbffff 	
400d0194:	fffeaabf 	
400d0198:	3ff48080 	
400d019c:	fffedfff 	
400d01a0:	3ff48088 	
400d01a4:	f555ffff 	
400d01a8:	ffffbfff 	
400d01ac:	ffffefff 	
400d01b0:	3ff4803c 	
400d01b4:	3ff48048 	
400d01b8:	000081b3 	
400d01bc:	000249f0 	
400d01c0:	3ff5f068 	
400d01c4:	ffff9fff 	
400d01c8:	7fff0000 	
400d01cc:	8000ffff 	
400d01d0:	01ffffff 	
400d01d4:	3f400ad2 	
400d01d8:	3f400adb 	
400d01dc:	3ff5f06c 	
400d01e0:	7fffefff 	
400d01e4:	0081b320 	
400d01e8:	0f424000 	
400d01ec:	3f400b19 	
400d01f0:	3f400b26 	
400d01f4:	3f400b6c 	
400d01f8:	3f400bb2 	
400d01fc:	ffc03fff 	
400d0200:	fe01ffff 	
400d0204:	ffff8fff 	
400d0208:	6000e044 	
400d020c:	fffdbfff 	
400d0210:	3f400bdb 	
400d0214:	3f400c15 	
400d0218:	3f400c6b 	
400d021c:	3ff66008 	
400d0220:	fffc00ff 	
400d0224:	3ff5f070 	
400d0228:	3ff5f08c 	
400d022c:	3ff5f090 	
400d0230:	3ff5f084 	
400d0234:	3ff5f088 	
400d0238:	3ff5f094 	
400d023c:	3ff5f0a4 	
400d0240:	e0001fff 	
400d0244:	c0000800 	
400d0248:	3f40057c 	
400d024c:	3ff00020 	
400d0250:	3ff000d0 	
400d0254:	3ff000c4 	
400d0258:	3ff000c0 	
400d025c:	3ff0001c 	
400d0260:	3ff000cc 	
400d0264:	3ffb1470 	
400d0268:	3ffb15d8 	
400d026c:	3f400600 	
400d0270:	50d83aa1 	
400d0274:	3f400684 	
400d0278:	3ffb0290 	
400d027c:	3ffb0184 	
400d0280:	3ffb0008 	
400d0284:	3f400c9d 	
400d0288:	3ffb1584 	
400d028c:	3ffb1480 	
400d0290:	3f400ca6 	
400d0294:	3ffb1484 	
400d0298:	400d208c 	
400d029c:	ffc1ffff 	
400d02a0:	bff3e000 	
400d02a4:	0ff3dfff 	
400d02a8:	3f400cc9 	
400d02ac:	40080680 	
400d02b0:	c03fffff 	
400d02b4:	3ffb147c 	
400d02b8:	4000c1ec 	
400d02bc:	4000681c 	
400d02c0:	3f400884 	
400d02c4:	00037c36 	
400d02c8:	061a8c08 	
400d02cc:	04c4b3ff 	
400d02d0:	3f400044 	
400d02d4:	3f400ce7 	
400d02d8:	ffe000ff 	
400d02dc:	fffeffbd 	
400d02e0:	00641394 	
400d02e4:	3ff4f0ac 	
400d02e8:	3ff6d0ac 	
400d02ec:	400081d4 	
400d02f0:	400081d4 	
400d02f4:	3f400e98 	
400d02f8:	40082bd4 	
400d02fc:	3ffb1588 	
400d0300:	60035144 	
400d0304:	3f4000ec 	
400d0308:	fffc1fff 	
400d030c:	3ffb15fb 	
400d0310:	40080760 	
400d0314:	0effffff 	
400d0318:	3f4004dc 	
400d031c:	3f40004c 	
400d0320:	fffff3ff 	
400d0324:	3ff44000 	
400d0328:	0ffd114c 	
400d032c:	40009f0c 	
400d0330:	3f400960 	
400d0334:	3ff44000 	
400d0338:	3ff44800 	
400d033c:	40009edc 	

400d0340 <thread0>:
400d0340:	004136        	entry	a1, 32
400d0343:	ff37a1        	l32r	a10, 400d0020 <_image_irom_vaddr> (3f400968 <esp32_gpio_ports_addrs+0x8>)
400d0346:	b286a5        	call8	40082bb0 <printk>
400d0349:	71a2a2        	movi	a10, 0x271
400d034c:	11aad0        	slli	a10, a10, 3
400d034f:	0b0c      	movi.n	a11, 0
400d0351:	b16765        	call8	400819c8 <z_impl_k_sleep>
400d0354:	fffac6        	j	400d0343 <thread0+0x3>
	...

400d0358 <thread1>:
400d0358:	004136        	entry	a1, 32
400d035b:	ff32a1        	l32r	a10, 400d0024 <_image_irom_vaddr+0x4> (3f40097d <esp32_gpio_ports_addrs+0x1d>)
400d035e:	b28525        	call8	40082bb0 <printk>
400d0361:	71a2a2        	movi	a10, 0x271
400d0364:	11aad0        	slli	a10, a10, 3
400d0367:	0b0c      	movi.n	a11, 0
400d0369:	b165e5        	call8	400819c8 <z_impl_k_sleep>
400d036c:	fffac6        	j	400d035b <thread1+0x3>
	...

400d0370 <__printk_hook_install>:
400d0370:	004136        	entry	a1, 32
400d0373:	ff2d81        	l32r	a8, 400d0028 <_image_irom_vaddr+0x8> (3ffb0000 <_char_out>)
400d0376:	0829      	s32i.n	a2, a8, 0
400d0378:	f01d      	retw.n
	...

400d037c <z_thread_entry>:
400d037c:	004136        	entry	a1, 32
400d037f:	20c550        	or	a12, a5, a5
400d0382:	20b440        	or	a11, a4, a4
400d0385:	03ad      	mov.n	a10, a3
400d0387:	0002e0        	callx8	a2
400d038a:	b16765        	call8	40081a00 <z_impl_z_current_get>
400d038d:	b171e5        	call8	40081aac <z_impl_k_thread_abort>

400d0390 <free_list_add>:
400d0390:	004136        	entry	a1, 32
400d0393:	20b330        	or	a11, a3, a3
400d0396:	20a220        	or	a10, a2, a2
400d0399:	02fbe5        	call8	400d3358 <chunk_size>
400d039c:	1fa082        	movi	a8, 31
400d039f:	40faa0        	nsau	a10, a10
400d03a2:	c0a8a0        	sub	a10, a8, a10
400d03a5:	a0da20        	addx4	a13, a10, a2
400d03a8:	1183d0        	slli	a8, a3, 3
400d03ab:	4dc8      	l32i.n	a12, a13, 16
400d03ad:	b84b      	addi.n	a11, a8, 4
400d03af:	886b      	addi.n	a8, a8, 6
400d03b1:	b2ba      	add.n	a11, a2, a11
400d03b3:	828a      	add.n	a8, a2, a8
400d03b5:	f49030        	extui	a9, a3, 0, 16
400d03b8:	8cdc      	bnez.n	a12, 400d03d4 <free_list_add+0x44>
400d03ba:	1c0c      	movi.n	a12, 1
400d03bc:	401a00        	ssl	a10
400d03bf:	a1cc00        	sll	a12, a12
400d03c2:	32a8      	l32i.n	a10, a2, 12
400d03c4:	20aac0        	or	a10, a10, a12
400d03c7:	32a9      	s32i.n	a10, a2, 12
400d03c9:	4d39      	s32i.n	a3, a13, 16
400d03cb:	005b92        	s16i	a9, a11, 0
400d03ce:	005892        	s16i	a9, a8, 0
400d03d1:	000506        	j	400d03e9 <free_list_add+0x59>
400d03d4:	b03c20        	addx8	a3, a12, a2
400d03d7:	0213a2        	l16ui	a10, a3, 4
400d03da:	005ba2        	s16i	a10, a11, 0
400d03dd:	0058c2        	s16i	a12, a8, 0
400d03e0:	b0aa20        	addx8	a10, a10, a2
400d03e3:	035a92        	s16i	a9, a10, 6
400d03e6:	025392        	s16i	a9, a3, 4
400d03e9:	f01d      	retw.n
	...

400d03ec <free_list_remove>:
400d03ec:	004136        	entry	a1, 32
400d03ef:	20b330        	or	a11, a3, a3
400d03f2:	20a220        	or	a10, a2, a2
400d03f5:	02f625        	call8	400d3358 <chunk_size>
400d03f8:	40faa0        	nsau	a10, a10
400d03fb:	fc1c      	movi.n	a12, 31
400d03fd:	c0cca0        	sub	a12, a12, a10
400d0400:	03bd      	mov.n	a11, a3
400d0402:	20a220        	or	a10, a2, a2
400d0405:	02f7e5        	call8	400d3384 <free_list_remove_bidx>
400d0408:	f01d      	retw.n
	...

400d040c <alloc_chunk>:
400d040c:	006136        	entry	a1, 48
400d040f:	40f350        	nsau	a5, a3
400d0412:	f61c      	movi.n	a6, 31
400d0414:	c06650        	sub	a6, a6, a5
400d0417:	03cd      	mov.n	a12, a3
400d0419:	a03620        	addx4	a3, a6, a2
400d041c:	4398      	l32i.n	a9, a3, 16
400d041e:	024d      	mov.n	a4, a2
400d0420:	e9ac      	beqz.n	a9, 400d0452 <alloc_chunk+0x46>
400d0422:	370c      	movi.n	a7, 3
400d0424:	042322        	l32i	a2, a3, 16
400d0427:	20a440        	or	a10, a4, a4
400d042a:	006192        	s32i	a9, a1, 0
400d042d:	11c9      	s32i.n	a12, a1, 4
400d042f:	02bd      	mov.n	a11, a2
400d0431:	02f265        	call8	400d3358 <chunk_size>
400d0434:	11c8      	l32i.n	a12, a1, 4
400d0436:	0198      	l32i.n	a9, a1, 0
400d0438:	043ac7        	bltu	a10, a12, 400d0440 <alloc_chunk+0x34>
400d043b:	06cd      	mov.n	a12, a6
400d043d:	000e46        	j	400d047a <alloc_chunk+0x6e>
400d0440:	b08240        	addx8	a8, a2, a4
400d0443:	031822        	l16ui	a2, a8, 6
400d0446:	ffc772        	addi	a7, a7, -1
400d0449:	046322        	s32i	a2, a3, 16
400d044c:	021927        	beq	a9, a2, 400d0452 <alloc_chunk+0x46>
400d044f:	fd1756        	bnez	a7, 400d0424 <alloc_chunk+0x18>
400d0452:	032422        	l32i	a2, a4, 12
400d0455:	605050        	neg	a5, a5
400d0458:	f87c      	movi.n	a8, -1
400d045a:	401500        	ssl	a5
400d045d:	a18800        	sll	a8, a8
400d0460:	102820        	and	a2, a8, a2
400d0463:	a29c      	beqz.n	a2, 400d0481 <alloc_chunk+0x75>
400d0465:	60c020        	neg	a12, a2
400d0468:	10cc20        	and	a12, a12, a2
400d046b:	40fcc0        	nsau	a12, a12
400d046e:	60c0c0        	neg	a12, a12
400d0471:	a02c40        	addx4	a2, a12, a4
400d0474:	232222        	l32i	a2, a2, 140
400d0477:	1fccc2        	addi	a12, a12, 31
400d047a:	02bd      	mov.n	a11, a2
400d047c:	04ad      	mov.n	a10, a4
400d047e:	02f065        	call8	400d3384 <free_list_remove_bidx>
400d0481:	f01d      	retw.n
	...

400d0484 <merge_chunks>:
400d0484:	004136        	entry	a1, 32
400d0487:	20b330        	or	a11, a3, a3
400d048a:	02ad      	mov.n	a10, a2
400d048c:	02eca5        	call8	400d3358 <chunk_size>
400d048f:	04bd      	mov.n	a11, a4
400d0491:	0a5d      	mov.n	a5, a10
400d0493:	02ad      	mov.n	a10, a2
400d0495:	02ec25        	call8	400d3358 <chunk_size>
400d0498:	55aa      	add.n	a5, a5, a10
400d049a:	855a      	add.n	a8, a5, a5
400d049c:	b03320        	addx8	a3, a3, a2
400d049f:	04bd      	mov.n	a11, a4
400d04a1:	015382        	s16i	a8, a3, 2
400d04a4:	02ad      	mov.n	a10, a2
400d04a6:	02eb25        	call8	400d3358 <chunk_size>
400d04a9:	44aa      	add.n	a4, a4, a10
400d04ab:	b04420        	addx8	a4, a4, a2
400d04ae:	005452        	s16i	a5, a4, 0
400d04b1:	f01d      	retw.n
	...

400d04b4 <split_chunks>:
400d04b4:	004136        	entry	a1, 32
400d04b7:	20b330        	or	a11, a3, a3
400d04ba:	20a220        	or	a10, a2, a2
400d04bd:	02e9a5        	call8	400d3358 <chunk_size>
400d04c0:	c08430        	sub	a8, a4, a3
400d04c3:	c05340        	sub	a5, a3, a4
400d04c6:	55aa      	add.n	a5, a5, a10
400d04c8:	988a      	add.n	a9, a8, a8
400d04ca:	b03320        	addx8	a3, a3, a2
400d04cd:	015392        	s16i	a9, a3, 2
400d04d0:	b03420        	addx8	a3, a4, a2
400d04d3:	955a      	add.n	a9, a5, a5
400d04d5:	04bd      	mov.n	a11, a4
400d04d7:	015392        	s16i	a9, a3, 2
400d04da:	005382        	s16i	a8, a3, 0
400d04dd:	02ad      	mov.n	a10, a2
400d04df:	02e7a5        	call8	400d3358 <chunk_size>
400d04e2:	44aa      	add.n	a4, a4, a10
400d04e4:	b04420        	addx8	a4, a4, a2
400d04e7:	005452        	s16i	a5, a4, 0
400d04ea:	f01d      	retw.n

400d04ec <free_chunk>:
400d04ec:	004136        	entry	a1, 32
400d04ef:	03bd      	mov.n	a11, a3
400d04f1:	02ad      	mov.n	a10, a2
400d04f3:	02e665        	call8	400d3358 <chunk_size>
400d04f6:	b3aa      	add.n	a11, a3, a10
400d04f8:	b04b20        	addx8	a4, a11, a2
400d04fb:	011442        	l16ui	a4, a4, 2
400d04fe:	14e407        	bbsi	a4, 0, 400d0516 <free_chunk+0x2a>
400d0501:	02ad      	mov.n	a10, a2
400d0503:	ffeea5        	call8	400d03ec <free_list_remove>
400d0506:	03bd      	mov.n	a11, a3
400d0508:	02ad      	mov.n	a10, a2
400d050a:	02e4e5        	call8	400d3358 <chunk_size>
400d050d:	c3aa      	add.n	a12, a3, a10
400d050f:	03bd      	mov.n	a11, a3
400d0511:	02ad      	mov.n	a10, a2
400d0513:	fff725        	call8	400d0484 <merge_chunks>
400d0516:	b04320        	addx8	a4, a3, a2
400d0519:	0014b2        	l16ui	a11, a4, 0
400d051c:	c0b3b0        	sub	a11, a3, a11
400d051f:	b08b20        	addx8	a8, a11, a2
400d0522:	011882        	l16ui	a8, a8, 2
400d0525:	18e807        	bbsi	a8, 0, 400d0541 <free_chunk+0x55>
400d0528:	02ad      	mov.n	a10, a2
400d052a:	ffec25        	call8	400d03ec <free_list_remove>
400d052d:	0014b2        	l16ui	a11, a4, 0
400d0530:	03cd      	mov.n	a12, a3
400d0532:	c0b3b0        	sub	a11, a3, a11
400d0535:	20a220        	or	a10, a2, a2
400d0538:	fff4a5        	call8	400d0484 <merge_chunks>
400d053b:	001442        	l16ui	a4, a4, 0
400d053e:	c03340        	sub	a3, a3, a4
400d0541:	03bd      	mov.n	a11, a3
400d0543:	02ad      	mov.n	a10, a2
400d0545:	ffe4a5        	call8	400d0390 <free_list_add>
400d0548:	f01d      	retw.n
	...

400d054c <sys_heap_free>:
400d054c:	004136        	entry	a1, 32
400d054f:	01b316        	beqz	a3, 400d056e <sys_heap_free+0x22>
400d0552:	002222        	l32i	a2, a2, 0
400d0555:	fcc332        	addi	a3, a3, -4
400d0558:	c03320        	sub	a3, a3, a2
400d055b:	413330        	srli	a3, a3, 3
400d055e:	03bd      	mov.n	a11, a3
400d0560:	02ad      	mov.n	a10, a2
400d0562:	0c0c      	movi.n	a12, 0
400d0564:	02e025        	call8	400d3368 <set_chunk_used>
400d0567:	03bd      	mov.n	a11, a3
400d0569:	02ad      	mov.n	a10, a2
400d056b:	fff825        	call8	400d04ec <free_chunk>
400d056e:	f01d      	retw.n

400d0570 <sys_heap_alloc>:
400d0570:	004136        	entry	a1, 32
400d0573:	0248      	l32i.n	a4, a2, 0
400d0575:	004356        	bnez	a3, 400d057d <sys_heap_alloc+0xd>
400d0578:	020c      	movi.n	a2, 0
400d057a:	001206        	j	400d05c6 <sys_heap_alloc+0x56>
400d057d:	2488      	l32i.n	a8, a4, 8
400d057f:	412330        	srli	a2, a3, 3
400d0582:	f2b287        	bgeu	a2, a8, 400d0578 <sys_heap_alloc+0x8>
400d0585:	33bb      	addi.n	a3, a3, 11
400d0587:	413330        	srli	a3, a3, 3
400d058a:	03bd      	mov.n	a11, a3
400d058c:	20a440        	or	a10, a4, a4
400d058f:	ffe7e5        	call8	400d040c <alloc_chunk>
400d0592:	0a2d      	mov.n	a2, a10
400d0594:	fe0a16        	beqz	a10, 400d0578 <sys_heap_alloc+0x8>
400d0597:	0abd      	mov.n	a11, a10
400d0599:	04ad      	mov.n	a10, a4
400d059b:	02dbe5        	call8	400d3358 <chunk_size>
400d059e:	13b3a7        	bgeu	a3, a10, 400d05b5 <sys_heap_alloc+0x45>
400d05a1:	323a      	add.n	a3, a2, a3
400d05a3:	02bd      	mov.n	a11, a2
400d05a5:	04ad      	mov.n	a10, a4
400d05a7:	20c330        	or	a12, a3, a3
400d05aa:	fff0a5        	call8	400d04b4 <split_chunks>
400d05ad:	03bd      	mov.n	a11, a3
400d05af:	20a440        	or	a10, a4, a4
400d05b2:	ffdde5        	call8	400d0390 <free_list_add>
400d05b5:	20b220        	or	a11, a2, a2
400d05b8:	01a0c2        	movi	a12, 1
400d05bb:	20a440        	or	a10, a4, a4
400d05be:	b02240        	addx8	a2, a2, a4
400d05c1:	02da65        	call8	400d3368 <set_chunk_used>
400d05c4:	224b      	addi.n	a2, a2, 4
400d05c6:	f01d      	retw.n

400d05c8 <sys_heap_aligned_alloc>:
400d05c8:	004136        	entry	a1, 32
400d05cb:	730b      	addi.n	a7, a3, -1
400d05cd:	107730        	and	a7, a7, a3
400d05d0:	0258      	l32i.n	a5, a2, 0
400d05d2:	079c      	beqz.n	a7, 400d05e6 <sys_heap_aligned_alloc+0x1e>
400d05d4:	602030        	neg	a2, a3
400d05d7:	102230        	and	a2, a2, a3
400d05da:	460c      	movi.n	a6, 4
400d05dc:	073d      	mov.n	a3, a7
400d05de:	636260        	minu	a6, a2, a6
400d05e1:	027d      	mov.n	a7, a2
400d05e3:	0004c6        	j	400d05fa <sys_heap_aligned_alloc+0x32>
400d05e6:	04a062        	movi	a6, 4
400d05e9:	0d53f6        	bgeui	a3, 5, 400d05fa <sys_heap_aligned_alloc+0x32>
400d05ec:	20a220        	or	a10, a2, a2
400d05ef:	20b440        	or	a11, a4, a4
400d05f2:	fff7e5        	call8	400d0570 <sys_heap_alloc>
400d05f5:	0a2d      	mov.n	a2, a10
400d05f7:	002346        	j	400d0688 <sys_heap_aligned_alloc+0xc0>
400d05fa:	44cc      	bnez.n	a4, 400d0602 <sys_heap_aligned_alloc+0x3a>
400d05fc:	020c      	movi.n	a2, 0
400d05fe:	002186        	j	400d0688 <sys_heap_aligned_alloc+0xc0>
400d0601:	00          	.byte 00
400d0602:	022582        	l32i	a8, a5, 8
400d0605:	412340        	srli	a2, a4, 3
400d0608:	f0b287        	bgeu	a2, a8, 400d05fc <sys_heap_aligned_alloc+0x34>
400d060b:	0bc4b2        	addi	a11, a4, 11
400d060e:	bb3a      	add.n	a11, a11, a3
400d0610:	c0bb60        	sub	a11, a11, a6
400d0613:	41b3b0        	srli	a11, a11, 3
400d0616:	05ad      	mov.n	a10, a5
400d0618:	ffdf25        	call8	400d040c <alloc_chunk>
400d061b:	0a6d      	mov.n	a6, a10
400d061d:	fdba16        	beqz	a10, 400d05fc <sys_heap_aligned_alloc+0x34>
400d0620:	274b      	addi.n	a2, a7, 4
400d0622:	b02a20        	addx8	a2, a10, a2
400d0625:	830b      	addi.n	a8, a3, -1
400d0627:	252a      	add.n	a2, a5, a2
400d0629:	228a      	add.n	a2, a2, a8
400d062b:	e23230        	remu	a3, a2, a3
400d062e:	c02230        	sub	a2, a2, a3
400d0631:	c02270        	sub	a2, a2, a7
400d0634:	424a      	add.n	a4, a2, a4
400d0636:	fcc232        	addi	a3, a2, -4
400d0639:	447b      	addi.n	a4, a4, 7
400d063b:	877c      	movi.n	a7, -8
400d063d:	c03350        	sub	a3, a3, a5
400d0640:	104470        	and	a4, a4, a7
400d0643:	c04450        	sub	a4, a4, a5
400d0646:	413330        	srli	a3, a3, 3
400d0649:	214340        	srai	a4, a4, 3
400d064c:	0fba37        	bgeu	a10, a3, 400d065f <sys_heap_aligned_alloc+0x97>
400d064f:	0abd      	mov.n	a11, a10
400d0651:	03cd      	mov.n	a12, a3
400d0653:	05ad      	mov.n	a10, a5
400d0655:	ffe5e5        	call8	400d04b4 <split_chunks>
400d0658:	06bd      	mov.n	a11, a6
400d065a:	05ad      	mov.n	a10, a5
400d065c:	ffd325        	call8	400d0390 <free_list_add>
400d065f:	03bd      	mov.n	a11, a3
400d0661:	05ad      	mov.n	a10, a5
400d0663:	02cf65        	call8	400d3358 <chunk_size>
400d0666:	a3aa      	add.n	a10, a3, a10
400d0668:	10b4a7        	bgeu	a4, a10, 400d067c <sys_heap_aligned_alloc+0xb4>
400d066b:	03bd      	mov.n	a11, a3
400d066d:	05ad      	mov.n	a10, a5
400d066f:	20c440        	or	a12, a4, a4
400d0672:	ffe425        	call8	400d04b4 <split_chunks>
400d0675:	04bd      	mov.n	a11, a4
400d0677:	05ad      	mov.n	a10, a5
400d0679:	ffd165        	call8	400d0390 <free_list_add>
400d067c:	01a0c2        	movi	a12, 1
400d067f:	20b330        	or	a11, a3, a3
400d0682:	20a550        	or	a10, a5, a5
400d0685:	02ce25        	call8	400d3368 <set_chunk_used>
400d0688:	f01d      	retw.n
	...

400d068c <sys_heap_init>:
400d068c:	004136        	entry	a1, 32
400d068f:	fcc442        	addi	a4, a4, -4
400d0692:	857c      	movi.n	a5, -8
400d0694:	937b      	addi.n	a9, a3, 7
400d0696:	334a      	add.n	a3, a3, a4
400d0698:	109950        	and	a9, a9, a5
400d069b:	103350        	and	a3, a3, a5
400d069e:	c03390        	sub	a3, a3, a9
400d06a1:	415330        	srli	a5, a3, 3
400d06a4:	40f5a0        	nsau	a10, a5
400d06a7:	082c      	movi.n	a8, 32
400d06a9:	0299      	s32i.n	a9, a2, 0
400d06ab:	c088a0        	sub	a8, a8, a10
400d06ae:	422c      	movi.n	a2, 36
400d06b0:	c022a0        	sub	a2, a2, a10
400d06b3:	1188e0        	slli	a8, a8, 2
400d06b6:	1122e0        	slli	a2, a2, 2
400d06b9:	fcc882        	addi	a8, a8, -4
400d06bc:	060c      	movi.n	a6, 0
400d06be:	227b      	addi.n	a2, a2, 7
400d06c0:	418280        	srli	a8, a8, 2
400d06c3:	094d      	mov.n	a4, a9
400d06c5:	2959      	s32i.n	a5, a9, 8
400d06c7:	3969      	s32i.n	a6, a9, 12
400d06c9:	412320        	srli	a2, a2, 3
400d06cc:	881b      	addi.n	a8, a8, 1
400d06ce:	048876        	loop	a8, 400d06d6 <sys_heap_init+0x4a>
400d06d1:	4969      	s32i.n	a6, a9, 16
400d06d3:	04c992        	addi	a9, a9, 4
400d06d6:	822a      	add.n	a8, a2, a2
400d06d8:	015482        	s16i	a8, a4, 2
400d06db:	04ad      	mov.n	a10, a4
400d06dd:	005462        	s16i	a6, a4, 0
400d06e0:	1c0c      	movi.n	a12, 1
400d06e2:	0b0c      	movi.n	a11, 0
400d06e4:	02c825        	call8	400d3368 <set_chunk_used>
400d06e7:	c08520        	sub	a8, a5, a2
400d06ea:	b09240        	addx8	a9, a2, a4
400d06ed:	a88a      	add.n	a10, a8, a8
400d06ef:	0159a2        	s16i	a10, a9, 2
400d06f2:	005922        	s16i	a2, a9, 0
400d06f5:	343a      	add.n	a3, a4, a3
400d06f7:	05bd      	mov.n	a11, a5
400d06f9:	20a440        	or	a10, a4, a4
400d06fc:	015362        	s16i	a6, a3, 2
400d06ff:	005382        	s16i	a8, a3, 0
400d0702:	1c0c      	movi.n	a12, 1
400d0704:	02c625        	call8	400d3368 <set_chunk_used>
400d0707:	02bd      	mov.n	a11, a2
400d0709:	04ad      	mov.n	a10, a4
400d070b:	ffc865        	call8	400d0390 <free_list_add>
400d070e:	f01d      	retw.n

400d0710 <uart_hal_set_sclk>:
400d0710:	004136        	entry	a1, 32
400d0713:	02a8      	l32i.n	a10, a2, 0
400d0715:	090c      	movi.n	a9, 0
400d0717:	180c      	movi.n	a8, 1
400d0719:	938930        	movnez	a8, a9, a3
400d071c:	019850        	slli	a9, a8, 27
400d071f:	fe43b1        	l32r	a11, 400d002c <_image_irom_vaddr+0xc> (f7ffffff <_rtc_bss_end+0xa7ffffff>)
400d0722:	0020c0        	memw
400d0725:	8a88      	l32i.n	a8, a10, 32
400d0727:	1088b0        	and	a8, a8, a11
400d072a:	208890        	or	a8, a8, a9
400d072d:	0020c0        	memw
400d0730:	8a89      	s32i.n	a8, a10, 32
400d0732:	f01d      	retw.n

400d0734 <uart_hal_set_baudrate>:
400d0734:	004136        	entry	a1, 32
400d0737:	0298      	l32i.n	a9, a2, 0
400d0739:	fe3e81        	l32r	a8, 400d0034 <_image_irom_vaddr+0x14> (f4240 <CONFIG_ESP_HEAP_MEM_POOL_REGION_1_SIZE+0xe8240>)
400d073c:	0020c0        	memw
400d073f:	0829a2        	l32i	a10, a9, 32
400d0742:	027ab7        	bbci	a10, 27, 400d0748 <uart_hal_set_baudrate+0x14>
400d0745:	fe3a81        	l32r	a8, 400d0030 <_image_irom_vaddr+0x10> (4c4b400 <CONFIG_FLASH_SIZE+0x484b400>)
400d0748:	1188c0        	slli	a8, a8, 4
400d074b:	0020c0        	memw
400d074e:	59a8      	l32i.n	a10, a9, 20
400d0750:	c28830        	quou	a8, a8, a3
400d0753:	fc7c      	movi.n	a12, -1
400d0755:	11b880        	slli	a11, a8, 8
400d0758:	01ccc0        	slli	a12, a12, 20
400d075b:	41bcb0        	srli	a11, a11, 12
400d075e:	10aac0        	and	a10, a10, a12
400d0761:	20aab0        	or	a10, a10, a11
400d0764:	0020c0        	memw
400d0767:	59a9      	s32i.n	a10, a9, 20
400d0769:	0020c0        	memw
400d076c:	59a8      	l32i.n	a10, a9, 20
400d076e:	fe32b1        	l32r	a11, 400d0038 <_image_irom_vaddr+0x18> (ff0fffff <_rtc_bss_end+0xaf0fffff>)
400d0771:	348080        	extui	a8, a8, 0, 4
400d0774:	0188c0        	slli	a8, a8, 20
400d0777:	10aab0        	and	a10, a10, a11
400d077a:	208a80        	or	a8, a10, a8
400d077d:	0020c0        	memw
400d0780:	5989      	s32i.n	a8, a9, 20
400d0782:	f01d      	retw.n

400d0784 <uart_hal_get_baudrate>:
400d0784:	006136        	entry	a1, 48
400d0787:	0288      	l32i.n	a8, a2, 0
400d0789:	fe2a91        	l32r	a9, 400d0034 <_image_irom_vaddr+0x14> (f4240 <CONFIG_ESP_HEAP_MEM_POOL_REGION_1_SIZE+0xe8240>)
400d078c:	0020c0        	memw
400d078f:	0828a2        	l32i	a10, a8, 32
400d0792:	027ab7        	bbci	a10, 27, 400d0798 <uart_hal_get_baudrate+0x14>
400d0795:	fe2691        	l32r	a9, 400d0030 <_image_irom_vaddr+0x10> (4c4b400 <CONFIG_FLASH_SIZE+0x484b400>)
400d0798:	0020c0        	memw
400d079b:	5888      	l32i.n	a8, a8, 20
400d079d:	fe27a1        	l32r	a10, 400d003c <_image_irom_vaddr+0x1c> (fffff <CONFIG_ESP_HEAP_MEM_POOL_REGION_1_SIZE+0xf3fff>)
400d07a0:	0020c0        	memw
400d07a3:	0189      	s32i.n	a8, a1, 0
400d07a5:	0020c0        	memw
400d07a8:	0188      	l32i.n	a8, a1, 0
400d07aa:	1199c0        	slli	a9, a9, 4
400d07ad:	1088a0        	and	a8, a8, a10
400d07b0:	0020c0        	memw
400d07b3:	01a8      	l32i.n	a10, a1, 0
400d07b5:	1188c0        	slli	a8, a8, 4
400d07b8:	35a4a0        	extui	a10, a10, 20, 4
400d07bb:	2088a0        	or	a8, a8, a10
400d07be:	c29980        	quou	a9, a9, a8
400d07c1:	0399      	s32i.n	a9, a3, 0
400d07c3:	f01d      	retw.n
400d07c5:	000000        	ill

400d07c8 <uart_hal_set_hw_flow_ctrl>:
400d07c8:	004136        	entry	a1, 32
400d07cb:	0288      	l32i.n	a8, a2, 0
400d07cd:	744040        	extui	a4, a4, 0, 8
400d07d0:	286307        	bbci	a3, 0, 400d07fc <uart_hal_set_hw_flow_ctrl+0x34>
400d07d3:	0020c0        	memw
400d07d6:	9898      	l32i.n	a9, a8, 36
400d07d8:	fe1aa1        	l32r	a10, 400d0040 <_image_irom_vaddr+0x20> (ff80ffff <_rtc_bss_end+0xaf80ffff>)
400d07db:	644040        	extui	a4, a4, 0, 7
400d07de:	114400        	slli	a4, a4, 16
400d07e1:	1099a0        	and	a9, a9, a10
400d07e4:	209940        	or	a9, a9, a4
400d07e7:	0020c0        	memw
400d07ea:	9899      	s32i.n	a9, a8, 36
400d07ec:	0020c0        	memw
400d07ef:	9848      	l32i.n	a4, a8, 36
400d07f1:	190c      	movi.n	a9, 1
400d07f3:	019990        	slli	a9, a9, 23
400d07f6:	204490        	or	a4, a4, a9
400d07f9:	000286        	j	400d0807 <uart_hal_set_hw_flow_ctrl+0x3f>
400d07fc:	0020c0        	memw
400d07ff:	9848      	l32i.n	a4, a8, 36
400d0801:	fe1091        	l32r	a9, 400d0044 <_image_irom_vaddr+0x24> (ff7fffff <_rtc_bss_end+0xaf7fffff>)
400d0804:	104490        	and	a4, a4, a9
400d0807:	0020c0        	memw
400d080a:	9849      	s32i.n	a4, a8, 36
400d080c:	0020c0        	memw
400d080f:	8848      	l32i.n	a4, a8, 32
400d0811:	0b6317        	bbci	a3, 1, 400d0820 <uart_hal_set_hw_flow_ctrl+0x58>
400d0814:	190c      	movi.n	a9, 1
400d0816:	119910        	slli	a9, a9, 15
400d0819:	204490        	or	a4, a4, a9
400d081c:	000186        	j	400d0826 <uart_hal_set_hw_flow_ctrl+0x5e>
400d081f:	00          	.byte 00
400d0820:	fe0a31        	l32r	a3, 400d0048 <_image_irom_vaddr+0x28> (ffff7fff <_rtc_bss_end+0xafff7fff>)
400d0823:	104430        	and	a4, a4, a3
400d0826:	0020c0        	memw
400d0829:	8849      	s32i.n	a4, a8, 32
400d082b:	f01d      	retw.n
400d082d:	000000        	ill

400d0830 <uart_hal_set_txfifo_empty_thr>:
400d0830:	004136        	entry	a1, 32
400d0833:	0298      	l32i.n	a9, a2, 0
400d0835:	fe05a1        	l32r	a10, 400d004c <_image_irom_vaddr+0x2c> (ffff80ff <_rtc_bss_end+0xafff80ff>)
400d0838:	0020c0        	memw
400d083b:	9988      	l32i.n	a8, a9, 36
400d083d:	643030        	extui	a3, a3, 0, 7
400d0840:	113380        	slli	a3, a3, 8
400d0843:	1088a0        	and	a8, a8, a10
400d0846:	208830        	or	a8, a8, a3
400d0849:	0020c0        	memw
400d084c:	9989      	s32i.n	a8, a9, 36
400d084e:	f01d      	retw.n

400d0850 <uart_hal_set_mode>:
400d0850:	004136        	entry	a1, 32
400d0853:	0288      	l32i.n	a8, a2, 0
400d0855:	573326        	beqi	a3, 3, 400d08b0 <uart_hal_set_mode+0x60>
400d0858:	1043f6        	bgeui	a3, 4, 400d086c <uart_hal_set_mode+0x1c>
400d085b:	021366        	bnei	a3, 1, 400d0861 <uart_hal_set_mode+0x11>
400d085e:	003786        	j	400d0940 <uart_hal_set_mode+0xf0>
400d0861:	022366        	bnei	a3, 2, 400d0867 <uart_hal_set_mode+0x17>
400d0864:	004b06        	j	400d0994 <uart_hal_set_mode+0x144>
400d0867:	000106        	j	400d086f <uart_hal_set_mode+0x1f>
400d086a:	00          	.byte 00
400d086b:	00          	.byte 00
400d086c:	7d4326        	beqi	a3, 4, 400d08ed <uart_hal_set_mode+0x9d>
400d086f:	0020c0        	memw
400d0872:	112832        	l32i	a3, a8, 68
400d0875:	e97c      	movi.n	a9, -2
400d0877:	103390        	and	a3, a3, a9
400d087a:	0020c0        	memw
400d087d:	116832        	s32i	a3, a8, 68
400d0880:	0020c0        	memw
400d0883:	112832        	l32i	a3, a8, 68
400d0886:	797c      	movi.n	a9, -9
400d0888:	103390        	and	a3, a3, a9
400d088b:	0020c0        	memw
400d088e:	116832        	s32i	a3, a8, 68
400d0891:	0020c0        	memw
400d0894:	112832        	l32i	a3, a8, 68
400d0897:	f96c      	movi.n	a9, -17
400d0899:	103390        	and	a3, a3, a9
400d089c:	0020c0        	memw
400d089f:	116832        	s32i	a3, a8, 68
400d08a2:	0020c0        	memw
400d08a5:	8838      	l32i.n	a3, a8, 32
400d08a7:	fdea91        	l32r	a9, 400d0050 <_image_irom_vaddr+0x30> (fffeffff <_rtc_bss_end+0xaffeffff>)
400d08aa:	103390        	and	a3, a3, a9
400d08ad:	004cc6        	j	400d09e4 <uart_hal_set_mode+0x194>
400d08b0:	0020c0        	memw
400d08b3:	8838      	l32i.n	a3, a8, 32
400d08b5:	fde691        	l32r	a9, 400d0050 <_image_irom_vaddr+0x30> (fffeffff <_rtc_bss_end+0xaffeffff>)
400d08b8:	103390        	and	a3, a3, a9
400d08bb:	0020c0        	memw
400d08be:	8839      	s32i.n	a3, a8, 32
400d08c0:	0020c0        	memw
400d08c3:	112832        	l32i	a3, a8, 68
400d08c6:	890c      	movi.n	a9, 8
400d08c8:	203390        	or	a3, a3, a9
400d08cb:	0020c0        	memw
400d08ce:	116832        	s32i	a3, a8, 68
400d08d1:	0020c0        	memw
400d08d4:	112832        	l32i	a3, a8, 68
400d08d7:	091c      	movi.n	a9, 16
400d08d9:	203390        	or	a3, a3, a9
400d08dc:	0020c0        	memw
400d08df:	116832        	s32i	a3, a8, 68
400d08e2:	0020c0        	memw
400d08e5:	8838      	l32i.n	a3, a8, 32
400d08e7:	bfaf92        	movi	a9, -65
400d08ea:	000d46        	j	400d0923 <uart_hal_set_mode+0xd3>
400d08ed:	0020c0        	memw
400d08f0:	112832        	l32i	a3, a8, 68
400d08f3:	091c      	movi.n	a9, 16
400d08f5:	203390        	or	a3, a3, a9
400d08f8:	0020c0        	memw
400d08fb:	116832        	s32i	a3, a8, 68
400d08fe:	0020c0        	memw
400d0901:	8838      	l32i.n	a3, a8, 32
400d0903:	fdd391        	l32r	a9, 400d0050 <_image_irom_vaddr+0x30> (fffeffff <_rtc_bss_end+0xaffeffff>)
400d0906:	bfafa2        	movi	a10, -65
400d0909:	103390        	and	a3, a3, a9
400d090c:	0020c0        	memw
400d090f:	8839      	s32i.n	a3, a8, 32
400d0911:	0020c0        	memw
400d0914:	8838      	l32i.n	a3, a8, 32
400d0916:	1033a0        	and	a3, a3, a10
400d0919:	0020c0        	memw
400d091c:	8839      	s32i.n	a3, a8, 32
400d091e:	0020c0        	memw
400d0921:	8838      	l32i.n	a3, a8, 32
400d0923:	103390        	and	a3, a3, a9
400d0926:	0020c0        	memw
400d0929:	8839      	s32i.n	a3, a8, 32
400d092b:	0020c0        	memw
400d092e:	112832        	l32i	a3, a8, 68
400d0931:	190c      	movi.n	a9, 1
400d0933:	203390        	or	a3, a3, a9
400d0936:	0020c0        	memw
400d0939:	116832        	s32i	a3, a8, 68
400d093c:	002a46        	j	400d09e9 <uart_hal_set_mode+0x199>
400d093f:	00          	.byte 00
400d0940:	0020c0        	memw
400d0943:	8898      	l32i.n	a9, a8, 32
400d0945:	0a4c      	movi.n	a10, 64
400d0947:	2099a0        	or	a9, a9, a10
400d094a:	0020c0        	memw
400d094d:	8899      	s32i.n	a9, a8, 32
400d094f:	0020c0        	memw
400d0952:	112892        	l32i	a9, a8, 68
400d0955:	7a7c      	movi.n	a10, -9
400d0957:	1099a0        	and	a9, a9, a10
400d095a:	0020c0        	memw
400d095d:	116892        	s32i	a9, a8, 68
400d0960:	0020c0        	memw
400d0963:	112892        	l32i	a9, a8, 68
400d0966:	fa6c      	movi.n	a10, -17
400d0968:	1099a0        	and	a9, a9, a10
400d096b:	0020c0        	memw
400d096e:	116892        	s32i	a9, a8, 68
400d0971:	0020c0        	memw
400d0974:	8898      	l32i.n	a9, a8, 32
400d0976:	fdb6a1        	l32r	a10, 400d0050 <_image_irom_vaddr+0x30> (fffeffff <_rtc_bss_end+0xaffeffff>)
400d0979:	1099a0        	and	a9, a9, a10
400d097c:	0020c0        	memw
400d097f:	8899      	s32i.n	a9, a8, 32
400d0981:	0020c0        	memw
400d0984:	112892        	l32i	a9, a8, 68
400d0987:	209930        	or	a9, a9, a3
400d098a:	0020c0        	memw
400d098d:	116892        	s32i	a9, a8, 68
400d0990:	001546        	j	400d09e9 <uart_hal_set_mode+0x199>
400d0993:	00          	.byte 00
400d0994:	0020c0        	memw
400d0997:	112832        	l32i	a3, a8, 68
400d099a:	e97c      	movi.n	a9, -2
400d099c:	103390        	and	a3, a3, a9
400d099f:	0020c0        	memw
400d09a2:	116832        	s32i	a3, a8, 68
400d09a5:	0020c0        	memw
400d09a8:	112832        	l32i	a3, a8, 68
400d09ab:	797c      	movi.n	a9, -9
400d09ad:	103390        	and	a3, a3, a9
400d09b0:	0020c0        	memw
400d09b3:	116832        	s32i	a3, a8, 68
400d09b6:	0020c0        	memw
400d09b9:	112832        	l32i	a3, a8, 68
400d09bc:	f96c      	movi.n	a9, -17
400d09be:	103390        	and	a3, a3, a9
400d09c1:	0020c0        	memw
400d09c4:	116832        	s32i	a3, a8, 68
400d09c7:	0020c0        	memw
400d09ca:	8838      	l32i.n	a3, a8, 32
400d09cc:	bfaf92        	movi	a9, -65
400d09cf:	103390        	and	a3, a3, a9
400d09d2:	0020c0        	memw
400d09d5:	8839      	s32i.n	a3, a8, 32
400d09d7:	0020c0        	memw
400d09da:	8838      	l32i.n	a3, a8, 32
400d09dc:	190c      	movi.n	a9, 1
400d09de:	119900        	slli	a9, a9, 16
400d09e1:	203390        	or	a3, a3, a9
400d09e4:	0020c0        	memw
400d09e7:	8839      	s32i.n	a3, a8, 32
400d09e9:	f01d      	retw.n
	...

400d09ec <uart_hal_set_rx_timeout>:
400d09ec:	004136        	entry	a1, 32
400d09ef:	02ad      	mov.n	a10, a2
400d09f1:	02b4e5        	call8	400d3540 <uart_hal_get_symb_len>
400d09f4:	743030        	extui	a3, a3, 0, 8
400d09f7:	0298      	l32i.n	a9, a2, 0
400d09f9:	82aa30        	mull	a10, a10, a3
400d09fc:	0020c0        	memw
400d09ff:	8928      	l32i.n	a2, a9, 32
400d0a01:	f4a0a0        	extui	a10, a10, 0, 16
400d0a04:	8a7b      	addi.n	a8, a10, 7
400d0a06:	c48380        	extui	a8, a8, 3, 13
400d0a09:	05f2b7        	bbsi	a2, 27, 400d0a12 <uart_hal_set_rx_timeout+0x26>
400d0a0c:	11aad0        	slli	a10, a10, 3
400d0a0f:	f480a0        	extui	a8, a10, 0, 16
400d0a12:	78ac      	beqz.n	a8, 400d0a3d <uart_hal_set_rx_timeout+0x51>
400d0a14:	0020c0        	memw
400d0a17:	9938      	l32i.n	a3, a9, 36
400d0a19:	fd8e21        	l32r	a2, 400d0054 <_image_irom_vaddr+0x34> (80ffffff <_rtc_bss_end+0x30ffffff>)
400d0a1c:	648080        	extui	a8, a8, 0, 7
400d0a1f:	018880        	slli	a8, a8, 24
400d0a22:	103320        	and	a3, a3, a2
400d0a25:	203380        	or	a3, a3, a8
400d0a28:	0020c0        	memw
400d0a2b:	9939      	s32i.n	a3, a9, 36
400d0a2d:	0020c0        	memw
400d0a30:	9938      	l32i.n	a3, a9, 36
400d0a32:	f87c      	movi.n	a8, -1
400d0a34:	018810        	slli	a8, a8, 31
400d0a37:	203380        	or	a3, a3, a8
400d0a3a:	000286        	j	400d0a48 <uart_hal_set_rx_timeout+0x5c>
400d0a3d:	0020c0        	memw
400d0a40:	9938      	l32i.n	a3, a9, 36
400d0a42:	fd8521        	l32r	a2, 400d0058 <_image_irom_vaddr+0x38> (7fffffff <_rtc_bss_end+0x2fffffff>)
400d0a45:	103320        	and	a3, a3, a2
400d0a48:	0020c0        	memw
400d0a4b:	9939      	s32i.n	a3, a9, 36
400d0a4d:	f01d      	retw.n
	...

400d0a50 <uart_hal_rxfifo_rst>:
400d0a50:	006136        	entry	a1, 48
400d0a53:	0288      	l32i.n	a8, a2, 0
400d0a55:	fd84a1        	l32r	a10, 400d0068 <_image_irom_vaddr+0x48> (3ff40000 <UART0>)
400d0a58:	fd8191        	l32r	a9, 400d005c <_image_irom_vaddr+0x3c> (3ff40000 <UART0>)
400d0a5b:	0b18a7        	beq	a8, a10, 400d0a6a <uart_hal_rxfifo_rst+0x1a>
400d0a5e:	fd83a1        	l32r	a10, 400d006c <_image_irom_vaddr+0x4c> (3ff50000 <UART1>)
400d0a61:	fd7f91        	l32r	a9, 400d0060 <_image_irom_vaddr+0x40> (3ff50000 <UART1>)
400d0a64:	0218a7        	beq	a8, a10, 400d0a6a <uart_hal_rxfifo_rst+0x1a>
400d0a67:	fd7f91        	l32r	a9, 400d0064 <_image_irom_vaddr+0x44> (3ff6e000 <TIMERG1+0xe000>)
400d0a6a:	0020c0        	memw
400d0a6d:	78a8      	l32i.n	a10, a8, 28
400d0a6f:	0020c0        	memw
400d0a72:	01a9      	s32i.n	a10, a1, 0
400d0a74:	0020c0        	memw
400d0a77:	0001a2        	l8ui	a10, a1, 0
400d0a7a:	0020c0        	memw
400d0a7d:	1828b2        	l32i	a11, a8, 96
400d0a80:	74a0a0        	extui	a10, a10, 0, 8
400d0a83:	0020c0        	memw
400d0a86:	11b9      	s32i.n	a11, a1, 4
400d0a88:	1adc      	bnez.n	a10, 400d0a9d <uart_hal_rxfifo_rst+0x4d>
400d0a8a:	0020c0        	memw
400d0a8d:	11b8      	l32i.n	a11, a1, 4
400d0a8f:	0020c0        	memw
400d0a92:	11a8      	l32i.n	a10, a1, 4
400d0a94:	a4b2b0        	extui	a11, a11, 2, 11
400d0a97:	a4ada0        	extui	a10, a10, 13, 11
400d0a9a:	071ba7        	beq	a11, a10, 400d0aa5 <uart_hal_rxfifo_rst+0x55>
400d0a9d:	0020c0        	memw
400d0aa0:	09a8      	l32i.n	a10, a9, 0
400d0aa2:	fff106        	j	400d0a6a <uart_hal_rxfifo_rst+0x1a>
400d0aa5:	f01d      	retw.n
	...

400d0aa8 <uart_hal_write_txfifo>:
400d0aa8:	006136        	entry	a1, 48
400d0aab:	0288      	l32i.n	a8, a2, 0
400d0aad:	f4a040        	extui	a10, a4, 0, 16
400d0ab0:	0020c0        	memw
400d0ab3:	7888      	l32i.n	a8, a8, 28
400d0ab5:	0020c0        	memw
400d0ab8:	0189      	s32i.n	a8, a1, 0
400d0aba:	0020c0        	memw
400d0abd:	020192        	l8ui	a9, a1, 2
400d0ac0:	80a082        	movi	a8, 128
400d0ac3:	749090        	extui	a9, a9, 0, 8
400d0ac6:	c08890        	sub	a8, a8, a9
400d0ac9:	f49080        	extui	a9, a8, 0, 16
400d0acc:	023497        	bltu	a4, a9, 400d0ad2 <uart_hal_write_txfifo+0x2a>
400d0acf:	f4a080        	extui	a10, a8, 0, 16
400d0ad2:	05a9      	s32i.n	a10, a5, 0
400d0ad4:	0298      	l32i.n	a9, a2, 0
400d0ad6:	fd6421        	l32r	a2, 400d0068 <_image_irom_vaddr+0x48> (3ff40000 <UART0>)
400d0ad9:	380c      	movi.n	a8, 3
400d0adb:	018830        	slli	a8, a8, 29
400d0ade:	0b1927        	beq	a9, a2, 400d0aed <uart_hal_write_txfifo+0x45>
400d0ae1:	fd6221        	l32r	a2, 400d006c <_image_irom_vaddr+0x4c> (3ff50000 <UART1>)
400d0ae4:	fd6481        	l32r	a8, 400d0074 <_image_irom_vaddr+0x54> (6002e000 <_rtc_bss_end+0x1002e000>)
400d0ae7:	029927        	bne	a9, a2, 400d0aed <uart_hal_write_txfifo+0x45>
400d0aea:	fd6181        	l32r	a8, 400d0070 <_image_irom_vaddr+0x50> (60010000 <_rtc_bss_end+0x10010000>)
400d0aed:	090c      	movi.n	a9, 0
400d0aef:	0002c6        	j	400d0afe <uart_hal_write_txfifo+0x56>
400d0af2:	239a      	add.n	a2, a3, a9
400d0af4:	000222        	l8ui	a2, a2, 0
400d0af7:	991b      	addi.n	a9, a9, 1
400d0af9:	0020c0        	memw
400d0afc:	0829      	s32i.n	a2, a8, 0
400d0afe:	f039a7        	bltu	a9, a10, 400d0af2 <uart_hal_write_txfifo+0x4a>
400d0b01:	f01d      	retw.n
	...

400d0b04 <uart_hal_read_rxfifo>:
400d0b04:	006136        	entry	a1, 48
400d0b07:	0488      	l32i.n	a8, a4, 0
400d0b09:	0218a6        	blti	a8, 1, 400d0b0f <uart_hal_read_rxfifo+0xb>
400d0b0c:	002006        	j	400d0b90 <uart_hal_read_rxfifo+0x8c>
400d0b0f:	0288      	l32i.n	a8, a2, 0
400d0b11:	0020c0        	memw
400d0b14:	7898      	l32i.n	a9, a8, 28
400d0b16:	0020c0        	memw
400d0b19:	0199      	s32i.n	a9, a1, 0
400d0b1b:	0020c0        	memw
400d0b1e:	000192        	l8ui	a9, a1, 0
400d0b21:	0020c0        	memw
400d0b24:	182882        	l32i	a8, a8, 96
400d0b27:	749090        	extui	a9, a9, 0, 8
400d0b2a:	0020c0        	memw
400d0b2d:	1189      	s32i.n	a8, a1, 4
400d0b2f:	0020c0        	memw
400d0b32:	1188      	l32i.n	a8, a1, 4
400d0b34:	0020c0        	memw
400d0b37:	11a8      	l32i.n	a10, a1, 4
400d0b39:	a48d80        	extui	a8, a8, 13, 11
400d0b3c:	a4a2a0        	extui	a10, a10, 2, 11
400d0b3f:	12ba87        	bgeu	a10, a8, 400d0b55 <uart_hal_read_rxfifo+0x51>
400d0b42:	0020c0        	memw
400d0b45:	1188      	l32i.n	a8, a1, 4
400d0b47:	0020c0        	memw
400d0b4a:	1198      	l32i.n	a9, a1, 4
400d0b4c:	a48d80        	extui	a8, a8, 13, 11
400d0b4f:	a49290        	extui	a9, a9, 2, 11
400d0b52:	0009c6        	j	400d0b7d <uart_hal_read_rxfifo+0x79>
400d0b55:	0020c0        	memw
400d0b58:	11a8      	l32i.n	a10, a1, 4
400d0b5a:	0020c0        	memw
400d0b5d:	1188      	l32i.n	a8, a1, 4
400d0b5f:	a4ada0        	extui	a10, a10, 13, 11
400d0b62:	a48280        	extui	a8, a8, 2, 11
400d0b65:	1bba87        	bgeu	a10, a8, 400d0b84 <uart_hal_read_rxfifo+0x80>
400d0b68:	0020c0        	memw
400d0b6b:	1188      	l32i.n	a8, a1, 4
400d0b6d:	0020c0        	memw
400d0b70:	1198      	l32i.n	a9, a1, 4
400d0b72:	a48d80        	extui	a8, a8, 13, 11
400d0b75:	80a0a2        	movi	a10, 128
400d0b78:	a49290        	extui	a9, a9, 2, 11
400d0b7b:	88aa      	add.n	a8, a8, a10
400d0b7d:	c08890        	sub	a8, a8, a9
400d0b80:	000286        	j	400d0b8e <uart_hal_read_rxfifo+0x8a>
400d0b83:	00          	.byte 00
400d0b84:	180c      	movi.n	a8, 1
400d0b86:	0a0c      	movi.n	a10, 0
400d0b88:	838a90        	moveqz	a8, a10, a9
400d0b8b:	118890        	slli	a8, a8, 7
400d0b8e:	0489      	s32i.n	a8, a4, 0
400d0b90:	0228      	l32i.n	a2, a2, 0
400d0b92:	fd3581        	l32r	a8, 400d0068 <_image_irom_vaddr+0x48> (3ff40000 <UART0>)
400d0b95:	0448      	l32i.n	a4, a4, 0
400d0b97:	fd3191        	l32r	a9, 400d005c <_image_irom_vaddr+0x3c> (3ff40000 <UART0>)
400d0b9a:	0b1287        	beq	a2, a8, 400d0ba9 <uart_hal_read_rxfifo+0xa5>
400d0b9d:	fd3381        	l32r	a8, 400d006c <_image_irom_vaddr+0x4c> (3ff50000 <UART1>)
400d0ba0:	fd3191        	l32r	a9, 400d0064 <_image_irom_vaddr+0x44> (3ff6e000 <TIMERG1+0xe000>)
400d0ba3:	029287        	bne	a2, a8, 400d0ba9 <uart_hal_read_rxfifo+0xa5>
400d0ba6:	fd2e91        	l32r	a9, 400d0060 <_image_irom_vaddr+0x40> (3ff50000 <UART1>)
400d0ba9:	080c      	movi.n	a8, 0
400d0bab:	000346        	j	400d0bbc <uart_hal_read_rxfifo+0xb8>
400d0bae:	00          	.byte 00
400d0baf:	00          	.byte 00
400d0bb0:	0020c0        	memw
400d0bb3:	09a8      	l32i.n	a10, a9, 0
400d0bb5:	238a      	add.n	a2, a3, a8
400d0bb7:	0042a2        	s8i	a10, a2, 0
400d0bba:	881b      	addi.n	a8, a8, 1
400d0bbc:	f09487        	bne	a4, a8, 400d0bb0 <uart_hal_read_rxfifo+0xac>
400d0bbf:	f01d      	retw.n
400d0bc1:	000000        	ill

400d0bc4 <select_rtc_slow_clk>:
400d0bc4:	004136        	entry	a1, 32
400d0bc7:	204220        	or	a4, a2, a2
400d0bca:	01a032        	movi	a3, 1
400d0bcd:	441466        	bnei	a4, 1, 400d0c15 <select_rtc_slow_clk+0x51>
400d0bd0:	041266        	bnei	a2, 1, 400d0bd8 <select_rtc_slow_clk+0x14>
400d0bd3:	02ad      	mov.n	a10, a2
400d0bd5:	0021a5        	call8	400d0df0 <rtc_clk_32k_enable>
400d0bd8:	00a4b2        	movi	a11, 0x400
400d0bdb:	2a0c      	movi.n	a10, 2
400d0bdd:	00d525        	call8	400d1930 <rtc_clk_cal>
400d0be0:	fd2651        	l32r	a5, 400d0078 <_image_irom_vaddr+0x58> (e4e1bf <CONFIG_FLASH_SIZE+0xa4e1bf>)
400d0be3:	2e35a7        	bltu	a5, a10, 400d0c15 <select_rtc_slow_clk+0x51>
400d0be6:	071366        	bnei	a3, 1, 400d0bf1 <select_rtc_slow_clk+0x2d>
400d0be9:	030c      	movi.n	a3, 0
400d0beb:	e11a37        	beq	a10, a3, 400d0bd0 <select_rtc_slow_clk+0xc>
400d0bee:	000d06        	j	400d0c26 <select_rtc_slow_clk+0x62>
400d0bf1:	fd2241        	l32r	a4, 400d007c <_image_irom_vaddr+0x5c> (3ffb0004 <esp_log_default_level>)
400d0bf4:	0448      	l32i.n	a4, a4, 0
400d0bf6:	0624f6        	bgeui	a4, 2, 400d0c00 <select_rtc_slow_clk+0x3c>
400d0bf9:	330b      	addi.n	a3, a3, -1
400d0bfb:	040c      	movi.n	a4, 0
400d0bfd:	000506        	j	400d0c15 <select_rtc_slow_clk+0x51>
400d0c00:	b140a5        	call8	4008200c <esp_log_early_timestamp>
400d0c03:	0abd      	mov.n	a11, a10
400d0c05:	fd1ec1        	l32r	a12, 400d0080 <_image_irom_vaddr+0x60> (3f400a09 <esp32_gpio_ports_addrs+0xa9>)
400d0c08:	fd1fa1        	l32r	a10, 400d0084 <_image_irom_vaddr+0x64> (3f4009b9 <esp32_gpio_ports_addrs+0x59>)
400d0c0b:	fd1f81        	l32r	a8, 400d0088 <_image_irom_vaddr+0x68> (40007d54 <esp_rom_printf>)
400d0c0e:	0008e0        	callx8	a8
400d0c11:	fff906        	j	400d0bf9 <select_rtc_slow_clk+0x35>
400d0c14:	00          	.byte 00
400d0c15:	20a440        	or	a10, a4, a4
400d0c18:	002c65        	call8	400d0ee0 <rtc_clk_slow_freq_set>
400d0c1b:	00a4b2        	movi	a11, 0x400
400d0c1e:	0a0c      	movi.n	a10, 0
400d0c20:	00d0e5        	call8	400d1930 <rtc_clk_cal>
400d0c23:	fa6a16        	beqz	a10, 400d0bcd <select_rtc_slow_clk+0x9>
400d0c26:	0005a5        	call8	400d0c80 <esp_clk_slowclk_cal_set>
400d0c29:	f01d      	retw.n
	...

400d0c2c <esp_clk_init>:
400d0c2c:	008136        	entry	a1, 64
400d0c2f:	fd1721        	l32r	a2, 400d008c <_image_irom_vaddr+0x6c> (3f400040 <__rodata_region_start>)
400d0c32:	02a8      	l32i.n	a10, a2, 0
400d0c34:	007c65        	call8	400d13fc <rtc_init>
400d0c37:	1a0c      	movi.n	a10, 1
400d0c39:	002fe5        	call8	400d0f38 <rtc_clk_fast_freq_set>
400d0c3c:	0a0c      	movi.n	a10, 0
400d0c3e:	fff865        	call8	400d0bc4 <select_rtc_slow_clk>
400d0c41:	10c1a2        	addi	a10, a1, 16
400d0c44:	005325        	call8	400d1178 <rtc_clk_cpu_freq_get_config>
400d0c47:	01bd      	mov.n	a11, a1
400d0c49:	f0a0a2        	movi	a10, 240
400d0c4c:	7128      	l32i.n	a2, a1, 28
400d0c4e:	004d25        	call8	400d1120 <rtc_clk_cpu_freq_mhz_to_config>
400d0c51:	0a3d      	mov.n	a3, a10
400d0c53:	0a0c      	movi.n	a10, 0
400d0c55:	fd0e81        	l32r	a8, 400d0090 <_image_irom_vaddr+0x70> (40009278 <esp_rom_uart_tx_wait_idle>)
400d0c58:	0008e0        	callx8	a8
400d0c5b:	338c      	beqz.n	a3, 400d0c62 <esp_clk_init+0x36>
400d0c5d:	01ad      	mov.n	a10, a1
400d0c5f:	006665        	call8	400d12c4 <rtc_clk_cpu_freq_set_config>
400d0c62:	03eaa0        	rsr.ccount	a10
400d0c65:	f0a082        	movi	a8, 240
400d0c68:	a2ba80        	muluh	a11, a10, a8
400d0c6b:	82aa80        	mull	a10, a10, a8
400d0c6e:	02cd      	mov.n	a12, a2
400d0c70:	0d0c      	movi.n	a13, 0
400d0c72:	fd0881        	l32r	a8, 400d0094 <_image_irom_vaddr+0x74> (4000cff8 <__udivdi3>)
400d0c75:	0008e0        	callx8	a8
400d0c78:	13eaa0        	wsr.ccount	a10
400d0c7b:	f01d      	retw.n
400d0c7d:	000000        	ill

400d0c80 <esp_clk_slowclk_cal_set>:
400d0c80:	004136        	entry	a1, 32
400d0c83:	fd0581        	l32r	a8, 400d0098 <_image_irom_vaddr+0x78> (3ff48050 <RTCCNTL+0x50>)
400d0c86:	0020c0        	memw
400d0c89:	0829      	s32i.n	a2, a8, 0
400d0c8b:	f01d      	retw.n
400d0c8d:	000000        	ill

400d0c90 <rtc_clk_cpu_freq_to_pll_mhz>:
400d0c90:	004136        	entry	a1, 32
400d0c93:	fd02a1        	l32r	a10, 400d009c <_image_irom_vaddr+0x7c> (3ff5a014 <UART1+0xa014>)
400d0c96:	790c      	movi.n	a9, 7
400d0c98:	0020c0        	memw
400d0c9b:	0a38      	l32i.n	a3, a10, 0
400d0c9d:	0b5c      	movi.n	a11, 80
400d0c9f:	153630        	extui	a3, a3, 22, 2
400d0ca2:	c03930        	sub	a3, a9, a3
400d0ca5:	080c      	movi.n	a8, 0
400d0ca7:	3e12b7        	beq	a2, a11, 400d0ce9 <rtc_clk_cpu_freq_to_pll_mhz+0x59>
400d0caa:	a0a0b2        	movi	a11, 160
400d0cad:	180c      	movi.n	a8, 1
400d0caf:	3612b7        	beq	a2, a11, 400d0ce9 <rtc_clk_cpu_freq_to_pll_mhz+0x59>
400d0cb2:	f0a082        	movi	a8, 240
400d0cb5:	109287        	bne	a2, a8, 400d0cc9 <rtc_clk_cpu_freq_to_pll_mhz+0x39>
400d0cb8:	0020c0        	memw
400d0cbb:	0a38      	l32i.n	a3, a10, 0
400d0cbd:	280c      	movi.n	a8, 2
400d0cbf:	153630        	extui	a3, a3, 22, 2
400d0cc2:	c03930        	sub	a3, a9, a3
400d0cc5:	000806        	j	400d0ce9 <rtc_clk_cpu_freq_to_pll_mhz+0x59>
400d0cc8:	00          	.byte 00
400d0cc9:	fcec81        	l32r	a8, 400d007c <_image_irom_vaddr+0x5c> (3ffb0004 <esp_log_default_level>)
400d0ccc:	002882        	l32i	a8, a8, 0
400d0ccf:	011816        	beqz	a8, 400d0ce4 <rtc_clk_cpu_freq_to_pll_mhz+0x54>
400d0cd2:	b133a5        	call8	4008200c <esp_log_early_timestamp>
400d0cd5:	20baa0        	or	a11, a10, a10
400d0cd8:	fcf2c1        	l32r	a12, 400d00a0 <_image_irom_vaddr+0x80> (3f400a05 <esp32_gpio_ports_addrs+0xa5>)
400d0cdb:	fcf2a1        	l32r	a10, 400d00a4 <_image_irom_vaddr+0x84> (3f400a0d <esp32_gpio_ports_addrs+0xad>)
400d0cde:	fcea81        	l32r	a8, 400d0088 <_image_irom_vaddr+0x68> (40007d54 <esp_rom_printf>)
400d0ce1:	0008e0        	callx8	a8
400d0ce4:	013525        	call8	400d2038 <abort>
400d0ce7:	080c      	movi.n	a8, 0
400d0ce9:	fcef91        	l32r	a9, 400d00a8 <_image_irom_vaddr+0x88> (3ff0003c <__device_deps_end+0xaff138>)
400d0cec:	fcf1a1        	l32r	a10, 400d00b0 <_image_irom_vaddr+0x90> (ffffc7ff <_rtc_bss_end+0xafffc7ff>)
400d0cef:	0020c0        	memw
400d0cf2:	006982        	s32i	a8, a9, 0
400d0cf5:	fced91        	l32r	a9, 400d00ac <_image_irom_vaddr+0x8c> (3ff4807c <RTCCNTL+0x7c>)
400d0cf8:	113350        	slli	a3, a3, 11
400d0cfb:	0020c0        	memw
400d0cfe:	002982        	l32i	a8, a9, 0
400d0d01:	1088a0        	and	a8, a8, a10
400d0d04:	203830        	or	a3, a8, a3
400d0d07:	0020c0        	memw
400d0d0a:	0939      	s32i.n	a3, a9, 0
400d0d0c:	fcea91        	l32r	a9, 400d00b4 <_image_irom_vaddr+0x94> (3ff48070 <RTCCNTL+0x70>)
400d0d0f:	fcea81        	l32r	a8, 400d00b8 <_image_irom_vaddr+0x98> (e7ffffff <_rtc_bss_end+0x97ffffff>)
400d0d12:	0020c0        	memw
400d0d15:	0938      	l32i.n	a3, a9, 0
400d0d17:	02ad      	mov.n	a10, a2
400d0d19:	103380        	and	a3, a3, a8
400d0d1c:	180c      	movi.n	a8, 1
400d0d1e:	018850        	slli	a8, a8, 27
400d0d21:	203380        	or	a3, a3, a8
400d0d24:	0020c0        	memw
400d0d27:	0939      	s32i.n	a3, a9, 0
400d0d29:	fce581        	l32r	a8, 400d00c0 <_image_irom_vaddr+0xa0> (4c4b4c4b <_etext+0xc3e1437>)
400d0d2c:	fce431        	l32r	a3, 400d00bc <_image_irom_vaddr+0x9c> (3ff480b4 <RTCCNTL+0xb4>)
400d0d2f:	0020c0        	memw
400d0d32:	0389      	s32i.n	a8, a3, 0
400d0d34:	af8b65        	call8	400805ec <ets_update_cpu_frequency>
400d0d37:	00c465        	call8	400d197c <rtc_clk_wait_for_slow_cycle>
400d0d3a:	f01d      	retw.n

400d0d3c <rtc_clk_bbpll_disable>:
400d0d3c:	004136        	entry	a1, 32
400d0d3f:	fce181        	l32r	a8, 400d00c4 <_image_irom_vaddr+0xa4> (3ff48000 <RTCCNTL>)
400d0d42:	40a5a2        	movi	a10, 0x540
400d0d45:	0020c0        	memw
400d0d48:	0898      	l32i.n	a9, a8, 0
400d0d4a:	2099a0        	or	a9, a9, a10
400d0d4d:	0020c0        	memw
400d0d50:	0899      	s32i.n	a9, a8, 0
400d0d52:	fcdd91        	l32r	a9, 400d00c8 <_image_irom_vaddr+0xa8> (3ffb1468 <s_cur_pll_freq>)
400d0d55:	0a0c      	movi.n	a10, 0
400d0d57:	09a9      	s32i.n	a10, a9, 0
400d0d59:	fcdc91        	l32r	a9, 400d00cc <_image_irom_vaddr+0xac> (3ff48030 <RTCCNTL+0x30>)
400d0d5c:	0020c0        	memw
400d0d5f:	0998      	l32i.n	a9, a9, 0
400d0d61:	117977        	bbci	a9, 23, 400d0d76 <rtc_clk_bbpll_disable+0x3a>
400d0d64:	0020c0        	memw
400d0d67:	0898      	l32i.n	a9, a8, 0
400d0d69:	1a0c      	movi.n	a10, 1
400d0d6b:	01aae0        	slli	a10, a10, 18
400d0d6e:	2099a0        	or	a9, a9, a10
400d0d71:	0020c0        	memw
400d0d74:	0899      	s32i.n	a9, a8, 0
400d0d76:	f01d      	retw.n

400d0d78 <rtc_clk_32k_enable_common$constprop$0>:
400d0d78:	004136        	entry	a1, 32
400d0d7b:	fcd581        	l32r	a8, 400d00d0 <_image_irom_vaddr+0xb0> (3ff4848c <RTCCNTL+0x48c>)
400d0d7e:	fcd5a1        	l32r	a10, 400d00d4 <_image_irom_vaddr+0xb4> (e73ff7df <_rtc_bss_end+0x973ff7df>)
400d0d81:	0020c0        	memw
400d0d84:	0898      	l32i.n	a9, a8, 0
400d0d86:	0122c0        	slli	a2, a2, 20
400d0d89:	1099a0        	and	a9, a9, a10
400d0d8c:	0020c0        	memw
400d0d8f:	0899      	s32i.n	a9, a8, 0
400d0d91:	0020c0        	memw
400d0d94:	0898      	l32i.n	a9, a8, 0
400d0d96:	3a0c      	movi.n	a10, 3
400d0d98:	01aaf0        	slli	a10, a10, 17
400d0d9b:	2099a0        	or	a9, a9, a10
400d0d9e:	0020c0        	memw
400d0da1:	0899      	s32i.n	a9, a8, 0
400d0da3:	0020c0        	memw
400d0da6:	0898      	l32i.n	a9, a8, 0
400d0da8:	fccca1        	l32r	a10, 400d00d8 <_image_irom_vaddr+0xb8> (ffcfffff <_rtc_bss_end+0xafcfffff>)
400d0dab:	333a      	add.n	a3, a3, a3
400d0dad:	1099a0        	and	a9, a9, a10
400d0db0:	209920        	or	a9, a9, a2
400d0db3:	0020c0        	memw
400d0db6:	0899      	s32i.n	a9, a8, 0
400d0db8:	0020c0        	memw
400d0dbb:	0898      	l32i.n	a9, a8, 0
400d0dbd:	8a1c      	movi.n	a10, 24
400d0dbf:	2099a0        	or	a9, a9, a10
400d0dc2:	0020c0        	memw
400d0dc5:	0899      	s32i.n	a9, a8, 0
400d0dc7:	0020c0        	memw
400d0dca:	0898      	l32i.n	a9, a8, 0
400d0dcc:	9a7c      	movi.n	a10, -7
400d0dce:	1099a0        	and	a9, a9, a10
400d0dd1:	209930        	or	a9, a9, a3
400d0dd4:	0020c0        	memw
400d0dd7:	0899      	s32i.n	a9, a8, 0
400d0dd9:	0020c0        	memw
400d0ddc:	0898      	l32i.n	a9, a8, 0
400d0dde:	1a0c      	movi.n	a10, 1
400d0de0:	01aad0        	slli	a10, a10, 19
400d0de3:	2099a0        	or	a9, a9, a10
400d0de6:	0020c0        	memw
400d0de9:	0899      	s32i.n	a9, a8, 0
400d0deb:	f01d      	retw.n
400d0ded:	000000        	ill

400d0df0 <rtc_clk_32k_enable>:
400d0df0:	004136        	entry	a1, 32
400d0df3:	742020        	extui	a2, a2, 0, 8
400d0df6:	a28c      	beqz.n	a2, 400d0e04 <rtc_clk_32k_enable+0x14>
400d0df8:	0b0c      	movi.n	a11, 0
400d0dfa:	01a0a2        	movi	a10, 1
400d0dfd:	fff7a5        	call8	400d0d78 <rtc_clk_32k_enable_common$constprop$0>
400d0e00:	0008c6        	j	400d0e27 <rtc_clk_32k_enable+0x37>
400d0e03:	00          	.byte 00
400d0e04:	fcb381        	l32r	a8, 400d00d0 <_image_irom_vaddr+0xb0> (3ff4848c <RTCCNTL+0x48c>)
400d0e07:	fcb5a1        	l32r	a10, 400d00dc <_image_irom_vaddr+0xbc> (fff7ffff <_rtc_bss_end+0xaff7ffff>)
400d0e0a:	0020c0        	memw
400d0e0d:	0898      	l32i.n	a9, a8, 0
400d0e0f:	1099a0        	and	a9, a9, a10
400d0e12:	0020c0        	memw
400d0e15:	0899      	s32i.n	a9, a8, 0
400d0e17:	0020c0        	memw
400d0e1a:	0898      	l32i.n	a9, a8, 0
400d0e1c:	fcb1a1        	l32r	a10, 400d00e0 <_image_irom_vaddr+0xc0> (fff9ffff <_rtc_bss_end+0xaff9ffff>)
400d0e1f:	1099a0        	and	a9, a9, a10
400d0e22:	0020c0        	memw
400d0e25:	0899      	s32i.n	a9, a8, 0
400d0e27:	f01d      	retw.n
400d0e29:	000000        	ill

400d0e2c <rtc_clk_8m_enable>:
400d0e2c:	004136        	entry	a1, 32
400d0e2f:	fca181        	l32r	a8, 400d00b4 <_image_irom_vaddr+0x94> (3ff48070 <RTCCNTL+0x70>)
400d0e32:	742020        	extui	a2, a2, 0, 8
400d0e35:	0020c0        	memw
400d0e38:	0898      	l32i.n	a9, a8, 0
400d0e3a:	fcaaa1        	l32r	a10, 400d00e4 <_image_irom_vaddr+0xc4> (3ff4801c <RTCCNTL+0x1c>)
400d0e3d:	743030        	extui	a3, a3, 0, 8
400d0e40:	047216        	beqz	a2, 400d0e8b <rtc_clk_8m_enable+0x5f>
400d0e43:	bfafb2        	movi	a11, -65
400d0e46:	1099b0        	and	a9, a9, a11
400d0e49:	0020c0        	memw
400d0e4c:	0899      	s32i.n	a9, a8, 0
400d0e4e:	0020c0        	memw
400d0e51:	0a98      	l32i.n	a9, a10, 0
400d0e53:	fca5b1        	l32r	a11, 400d00e8 <_image_irom_vaddr+0xc8> (ffffc03f <_rtc_bss_end+0xafffc03f>)
400d0e56:	1099b0        	and	a9, a9, a11
400d0e59:	0b4c      	movi.n	a11, 64
400d0e5b:	2099b0        	or	a9, a9, a11
400d0e5e:	0020c0        	memw
400d0e61:	0a99      	s32i.n	a9, a10, 0
400d0e63:	0020c0        	memw
400d0e66:	0898      	l32i.n	a9, a8, 0
400d0e68:	938c      	beqz.n	a3, 400d0e75 <rtc_clk_8m_enable+0x49>
400d0e6a:	7fafa2        	movi	a10, -129
400d0e6d:	1099a0        	and	a9, a9, a10
400d0e70:	0001c6        	j	400d0e7b <rtc_clk_8m_enable+0x4f>
400d0e73:	00          	.byte 00
400d0e74:	00          	.byte 00
400d0e75:	80a0a2        	movi	a10, 128
400d0e78:	2099a0        	or	a9, a9, a10
400d0e7b:	0020c0        	memw
400d0e7e:	0899      	s32i.n	a9, a8, 0
400d0e80:	2a3c      	movi.n	a10, 50
400d0e82:	fc9a81        	l32r	a8, 400d00ec <_image_irom_vaddr+0xcc> (40008534 <esp_rom_delay_us>)
400d0e85:	0008e0        	callx8	a8
400d0e88:	0007c6        	j	400d0eab <rtc_clk_8m_enable+0x7f>
400d0e8b:	0b4c      	movi.n	a11, 64
400d0e8d:	2099b0        	or	a9, a9, a11
400d0e90:	0020c0        	memw
400d0e93:	0899      	s32i.n	a9, a8, 0
400d0e95:	0020c0        	memw
400d0e98:	0a88      	l32i.n	a8, a10, 0
400d0e9a:	fc9391        	l32r	a9, 400d00e8 <_image_irom_vaddr+0xc8> (ffffc03f <_rtc_bss_end+0xafffc03f>)
400d0e9d:	108890        	and	a8, a8, a9
400d0ea0:	00a592        	movi	a9, 0x500
400d0ea3:	208890        	or	a8, a8, a9
400d0ea6:	0020c0        	memw
400d0ea9:	0a89      	s32i.n	a8, a10, 0
400d0eab:	f01d      	retw.n
400d0ead:	000000        	ill

400d0eb0 <rtc_clk_8m_enabled>:
400d0eb0:	004136        	entry	a1, 32
400d0eb3:	fc8021        	l32r	a2, 400d00b4 <_image_irom_vaddr+0x94> (3ff48070 <RTCCNTL+0x70>)
400d0eb6:	0020c0        	memw
400d0eb9:	0288      	l32i.n	a8, a2, 0
400d0ebb:	120c      	movi.n	a2, 1
400d0ebd:	048680        	extui	a8, a8, 6, 1
400d0ec0:	302820        	xor	a2, a8, a2
400d0ec3:	f01d      	retw.n
400d0ec5:	000000        	ill

400d0ec8 <rtc_clk_8md256_enabled>:
400d0ec8:	004136        	entry	a1, 32
400d0ecb:	fc7a21        	l32r	a2, 400d00b4 <_image_irom_vaddr+0x94> (3ff48070 <RTCCNTL+0x70>)
400d0ece:	0020c0        	memw
400d0ed1:	0288      	l32i.n	a8, a2, 0
400d0ed3:	120c      	movi.n	a2, 1
400d0ed5:	048780        	extui	a8, a8, 7, 1
400d0ed8:	302820        	xor	a2, a8, a2
400d0edb:	f01d      	retw.n
400d0edd:	000000        	ill

400d0ee0 <rtc_clk_slow_freq_set>:
400d0ee0:	004136        	entry	a1, 32
400d0ee3:	fc7491        	l32r	a9, 400d00b4 <_image_irom_vaddr+0x94> (3ff48070 <RTCCNTL+0x70>)
400d0ee6:	fc82a1        	l32r	a10, 400d00f0 <_image_irom_vaddr+0xd0> (3fffffff <dram0_seg_1_heap+0x191cf>)
400d0ee9:	0020c0        	memw
400d0eec:	0988      	l32i.n	a8, a9, 0
400d0eee:	0b0c      	movi.n	a11, 0
400d0ef0:	1088a0        	and	a8, a8, a10
400d0ef3:	01a220        	slli	a10, a2, 30
400d0ef6:	2088a0        	or	a8, a8, a10
400d0ef9:	0020c0        	memw
400d0efc:	0989      	s32i.n	a8, a9, 0
400d0efe:	0020c0        	memw
400d0f01:	09a8      	l32i.n	a10, a9, 0
400d0f03:	220b      	addi.n	a2, a2, -1
400d0f05:	180c      	movi.n	a8, 1
400d0f07:	938b20        	movnez	a8, a11, a2
400d0f0a:	ffae22        	movi	a2, 0xfffffeff
400d0f0d:	10aa20        	and	a10, a10, a2
400d0f10:	118880        	slli	a8, a8, 8
400d0f13:	2088a0        	or	a8, a8, a10
400d0f16:	0020c0        	memw
400d0f19:	0989      	s32i.n	a8, a9, 0
400d0f1b:	2ca1a2        	movi	a10, 0x12c
400d0f1e:	fc7381        	l32r	a8, 400d00ec <_image_irom_vaddr+0xcc> (40008534 <esp_rom_delay_us>)
400d0f21:	0008e0        	callx8	a8
400d0f24:	f01d      	retw.n
	...

400d0f28 <rtc_clk_slow_freq_get>:
400d0f28:	004136        	entry	a1, 32
400d0f2b:	fc6221        	l32r	a2, 400d00b4 <_image_irom_vaddr+0x94> (3ff48070 <RTCCNTL+0x70>)
400d0f2e:	0020c0        	memw
400d0f31:	0228      	l32i.n	a2, a2, 0
400d0f33:	152e20        	extui	a2, a2, 30, 2
400d0f36:	f01d      	retw.n

400d0f38 <rtc_clk_fast_freq_set>:
400d0f38:	004136        	entry	a1, 32
400d0f3b:	fc5ea1        	l32r	a10, 400d00b4 <_image_irom_vaddr+0x94> (3ff48070 <RTCCNTL+0x70>)
400d0f3e:	190c      	movi.n	a9, 1
400d0f40:	019930        	slli	a9, a9, 29
400d0f43:	012230        	slli	a2, a2, 29
400d0f46:	0020c0        	memw
400d0f49:	0a88      	l32i.n	a8, a10, 0
400d0f4b:	102290        	and	a2, a2, a9
400d0f4e:	fc6991        	l32r	a9, 400d00f4 <_image_irom_vaddr+0xd4> (dfffffff <_rtc_bss_end+0x8fffffff>)
400d0f51:	108890        	and	a8, a8, a9
400d0f54:	202280        	or	a2, a2, a8
400d0f57:	0020c0        	memw
400d0f5a:	0a29      	s32i.n	a2, a10, 0
400d0f5c:	3a0c      	movi.n	a10, 3
400d0f5e:	fc6381        	l32r	a8, 400d00ec <_image_irom_vaddr+0xcc> (40008534 <esp_rom_delay_us>)
400d0f61:	0008e0        	callx8	a8
400d0f64:	f01d      	retw.n
	...

400d0f68 <rtc_clk_fast_freq_get>:
400d0f68:	004136        	entry	a1, 32
400d0f6b:	fc5221        	l32r	a2, 400d00b4 <_image_irom_vaddr+0x94> (3ff48070 <RTCCNTL+0x70>)
400d0f6e:	0020c0        	memw
400d0f71:	0228      	l32i.n	a2, a2, 0
400d0f73:	052d20        	extui	a2, a2, 29, 1
400d0f76:	f01d      	retw.n

400d0f78 <rtc_clk_bbpll_configure>:
400d0f78:	006136        	entry	a1, 48
400d0f7b:	0139      	s32i.n	a3, a1, 0
400d0f7d:	40a162        	movi	a6, 0x140
400d0f80:	fc4b51        	l32r	a5, 400d00ac <_image_irom_vaddr+0x8c> (3ff4807c <RTCCNTL+0x7c>)
400d0f83:	fc4641        	l32r	a4, 400d009c <_image_irom_vaddr+0x7c> (3ff5a014 <UART1+0xa014>)
400d0f86:	e8c222        	addi	a2, a2, -24
400d0f89:	7f9367        	bne	a3, a6, 400d100c <rtc_clk_bbpll_configure+0x94>
400d0f8c:	0020c0        	memw
400d0f8f:	0568      	l32i.n	a6, a5, 0
400d0f91:	0020c0        	memw
400d0f94:	0478      	l32i.n	a7, a4, 0
400d0f96:	740c      	movi.n	a4, 7
400d0f98:	157670        	extui	a7, a7, 22, 2
400d0f9b:	c04470        	sub	a4, a4, a7
400d0f9e:	fc4471        	l32r	a7, 400d00b0 <_image_irom_vaddr+0x90> (ffffc7ff <_rtc_bss_end+0xafffc7ff>)
400d0fa1:	114450        	slli	a4, a4, 11
400d0fa4:	106670        	and	a6, a6, a7
400d0fa7:	204460        	or	a4, a4, a6
400d0faa:	0020c0        	memw
400d0fad:	0549      	s32i.n	a4, a5, 0
400d0faf:	041c      	movi.n	a4, 16
400d0fb1:	333427        	bltu	a4, a2, 400d0fe8 <rtc_clk_bbpll_configure+0x70>
400d0fb4:	fc5141        	l32r	a4, 400d00f8 <_image_irom_vaddr+0xd8> (3f400ac1 <CSWTCH$47>)
400d0fb7:	fc5251        	l32r	a5, 400d0100 <_image_irom_vaddr+0xe0> (3f400a9f <CSWTCH$49>)
400d0fba:	442a      	add.n	a4, a4, a2
400d0fbc:	552a      	add.n	a5, a5, a2
400d0fbe:	000462        	l8ui	a6, a4, 0
400d0fc1:	000572        	l8ui	a7, a5, 0
400d0fc4:	fc4e41        	l32r	a4, 400d00fc <_image_irom_vaddr+0xdc> (3f400ab0 <CSWTCH$48>)
400d0fc7:	fc4f51        	l32r	a5, 400d0104 <_image_irom_vaddr+0xe4> (3f400a8e <CSWTCH$50>)
400d0fca:	fc4f81        	l32r	a8, 400d0108 <_image_irom_vaddr+0xe8> (3f400a7d <CSWTCH$51>)
400d0fcd:	fc4f91        	l32r	a9, 400d010c <_image_irom_vaddr+0xec> (3f400a6c <CSWTCH$52>)
400d0fd0:	442a      	add.n	a4, a4, a2
400d0fd2:	552a      	add.n	a5, a5, a2
400d0fd4:	882a      	add.n	a8, a8, a2
400d0fd6:	992a      	add.n	a9, a9, a2
400d0fd8:	000442        	l8ui	a4, a4, 0
400d0fdb:	000552        	l8ui	a5, a5, 0
400d0fde:	000832        	l8ui	a3, a8, 0
400d0fe1:	000922        	l8ui	a2, a9, 0
400d0fe4:	000406        	j	400d0ff8 <rtc_clk_bbpll_configure+0x80>
400d0fe7:	00          	.byte 00
400d0fe8:	00a022        	movi	a2, 0
400d0feb:	203220        	or	a3, a2, a2
400d0fee:	205220        	or	a5, a2, a2
400d0ff1:	470c      	movi.n	a7, 4
400d0ff3:	e0a042        	movi	a4, 224
400d0ff6:	c60c      	movi.n	a6, 12
400d0ff8:	3d4c      	movi.n	a13, 67
400d0ffa:	bc0c      	movi.n	a12, 11
400d0ffc:	4b0c      	movi.n	a11, 4
400d0ffe:	66a0a2        	movi	a10, 102
400d1001:	af5f65        	call8	400805f8 <regi2c_ctrl_write_reg>
400d1004:	84a0d2        	movi	a13, 132
400d1007:	002086        	j	400d108d <rtc_clk_bbpll_configure+0x115>
400d100a:	00          	.byte 00
400d100b:	00          	.byte 00
400d100c:	0020c0        	memw
400d100f:	0568      	l32i.n	a6, a5, 0
400d1011:	0020c0        	memw
400d1014:	0478      	l32i.n	a7, a4, 0
400d1016:	740c      	movi.n	a4, 7
400d1018:	157670        	extui	a7, a7, 22, 2
400d101b:	c04470        	sub	a4, a4, a7
400d101e:	fc2471        	l32r	a7, 400d00b0 <_image_irom_vaddr+0x90> (ffffc7ff <_rtc_bss_end+0xafffc7ff>)
400d1021:	114450        	slli	a4, a4, 11
400d1024:	106670        	and	a6, a6, a7
400d1027:	204460        	or	a4, a4, a6
400d102a:	0020c0        	memw
400d102d:	0549      	s32i.n	a4, a5, 0
400d102f:	3a0c      	movi.n	a10, 3
400d1031:	041c      	movi.n	a4, 16
400d1033:	fc2e81        	l32r	a8, 400d00ec <_image_irom_vaddr+0xcc> (40008534 <esp_rom_delay_us>)
400d1036:	0008e0        	callx8	a8
400d1039:	333427        	bltu	a4, a2, 400d1070 <rtc_clk_bbpll_configure+0xf8>
400d103c:	fc2f41        	l32r	a4, 400d00f8 <_image_irom_vaddr+0xd8> (3f400ac1 <CSWTCH$47>)
400d103f:	fc3051        	l32r	a5, 400d0100 <_image_irom_vaddr+0xe0> (3f400a9f <CSWTCH$49>)
400d1042:	442a      	add.n	a4, a4, a2
400d1044:	552a      	add.n	a5, a5, a2
400d1046:	000462        	l8ui	a6, a4, 0
400d1049:	000572        	l8ui	a7, a5, 0
400d104c:	fc3141        	l32r	a4, 400d0110 <_image_irom_vaddr+0xf0> (3f400a5b <CSWTCH$54>)
400d104f:	fc2d51        	l32r	a5, 400d0104 <_image_irom_vaddr+0xe4> (3f400a8e <CSWTCH$50>)
400d1052:	fc2d81        	l32r	a8, 400d0108 <_image_irom_vaddr+0xe8> (3f400a7d <CSWTCH$51>)
400d1055:	fc2d91        	l32r	a9, 400d010c <_image_irom_vaddr+0xec> (3f400a6c <CSWTCH$52>)
400d1058:	442a      	add.n	a4, a4, a2
400d105a:	552a      	add.n	a5, a5, a2
400d105c:	882a      	add.n	a8, a8, a2
400d105e:	992a      	add.n	a9, a9, a2
400d1060:	000442        	l8ui	a4, a4, 0
400d1063:	000552        	l8ui	a5, a5, 0
400d1066:	000832        	l8ui	a3, a8, 0
400d1069:	000922        	l8ui	a2, a9, 0
400d106c:	000346        	j	400d107d <rtc_clk_bbpll_configure+0x105>
400d106f:	00          	.byte 00
400d1070:	020c      	movi.n	a2, 0
400d1072:	023d      	mov.n	a3, a2
400d1074:	025d      	mov.n	a5, a2
400d1076:	470c      	movi.n	a7, 4
400d1078:	e0a042        	movi	a4, 224
400d107b:	c60c      	movi.n	a6, 12
400d107d:	c3a0d2        	movi	a13, 195
400d1080:	bc0c      	movi.n	a12, 11
400d1082:	4b0c      	movi.n	a11, 4
400d1084:	66a0a2        	movi	a10, 102
400d1087:	af5725        	call8	400805f8 <regi2c_ctrl_write_reg>
400d108a:	74a0d2        	movi	a13, 116
400d108d:	9c0c      	movi.n	a12, 9
400d108f:	04a0b2        	movi	a11, 4
400d1092:	66a0a2        	movi	a10, 102
400d1095:	115590        	slli	a5, a5, 7
400d1098:	1177c0        	slli	a7, a7, 4
400d109b:	af55e5        	call8	400805f8 <regi2c_ctrl_write_reg>
400d109e:	205570        	or	a5, a5, a7
400d10a1:	20d650        	or	a13, a6, a5
400d10a4:	74d0d0        	extui	a13, a13, 0, 8
400d10a7:	2c0c      	movi.n	a12, 2
400d10a9:	04a0b2        	movi	a11, 4
400d10ac:	66a0a2        	movi	a10, 102
400d10af:	af54a5        	call8	400805f8 <regi2c_ctrl_write_reg>
400d10b2:	1122a0        	slli	a2, a2, 6
400d10b5:	04dd      	mov.n	a13, a4
400d10b7:	202320        	or	a2, a3, a2
400d10ba:	3c0c      	movi.n	a12, 3
400d10bc:	4b0c      	movi.n	a11, 4
400d10be:	66a0a2        	movi	a10, 102
400d10c1:	af5365        	call8	400805f8 <regi2c_ctrl_write_reg>
400d10c4:	742020        	extui	a2, a2, 0, 8
400d10c7:	02dd      	mov.n	a13, a2
400d10c9:	5c0c      	movi.n	a12, 5
400d10cb:	04a0b2        	movi	a11, 4
400d10ce:	66a0a2        	movi	a10, 102
400d10d1:	af5265        	call8	400805f8 <regi2c_ctrl_write_reg>
400d10d4:	fbf821        	l32r	a2, 400d00b4 <_image_irom_vaddr+0x94> (3ff48070 <RTCCNTL+0x70>)
400d10d7:	a0a0a2        	movi	a10, 160
400d10da:	0020c0        	memw
400d10dd:	0228      	l32i.n	a2, a2, 0
400d10df:	045c      	movi.n	a4, 80
400d10e1:	152e20        	extui	a2, a2, 30, 2
400d10e4:	83a420        	moveqz	a10, a4, a2
400d10e7:	fc0181        	l32r	a8, 400d00ec <_image_irom_vaddr+0xcc> (40008534 <esp_rom_delay_us>)
400d10ea:	0008e0        	callx8	a8
400d10ed:	fbf621        	l32r	a2, 400d00c8 <_image_irom_vaddr+0xa8> (3ffb1468 <s_cur_pll_freq>)
400d10f0:	0138      	l32i.n	a3, a1, 0
400d10f2:	0239      	s32i.n	a3, a2, 0
400d10f4:	f01d      	retw.n
	...

400d10f8 <rtc_clk_xtal_freq_get>:
400d10f8:	004136        	entry	a1, 32
400d10fb:	fc0621        	l32r	a2, 400d0114 <_image_irom_vaddr+0xf4> (3ff480b0 <RTCCNTL+0xb0>)
400d10fe:	0020c0        	memw
400d1101:	0288      	l32i.n	a8, a2, 0
400d1103:	020c      	movi.n	a2, 0
400d1105:	f4a080        	extui	a10, a8, 0, 16
400d1108:	f59080        	extui	a9, a8, 16, 16
400d110b:	0d9a97        	bne	a10, a9, 400d111c <rtc_clk_xtal_freq_get+0x24>
400d110e:	980b      	addi.n	a9, a8, -1
400d1110:	fdafa2        	movi	a10, -3
400d1113:	053a97        	bltu	a10, a9, 400d111c <rtc_clk_xtal_freq_get+0x24>
400d1116:	fc0021        	l32r	a2, 400d0118 <_image_irom_vaddr+0xf8> (fffe <CONFIG_ESP_HEAP_MEM_POOL_REGION_1_SIZE+0x3ffe>)
400d1119:	102820        	and	a2, a8, a2
400d111c:	f01d      	retw.n
	...

400d1120 <rtc_clk_cpu_freq_mhz_to_config>:
400d1120:	004136        	entry	a1, 32
400d1123:	024d      	mov.n	a4, a2
400d1125:	fffd25        	call8	400d10f8 <rtc_clk_xtal_freq_get>
400d1128:	143a27        	bltu	a10, a2, 400d1140 <rtc_clk_cpu_freq_mhz_to_config+0x20>
400d112b:	c29a20        	quou	a9, a10, a2
400d112e:	418190        	srli	a8, a9, 1
400d1131:	88aa      	add.n	a8, a8, a10
400d1133:	c28890        	quou	a8, a8, a9
400d1136:	020c      	movi.n	a2, 0
400d1138:	389487        	bne	a4, a8, 400d1174 <rtc_clk_cpu_freq_mhz_to_config+0x54>
400d113b:	028d      	mov.n	a8, a2
400d113d:	000a06        	j	400d1169 <rtc_clk_cpu_freq_mhz_to_config+0x49>
400d1140:	025c      	movi.n	a2, 80
400d1142:	171427        	beq	a4, a2, 400d115d <rtc_clk_cpu_freq_mhz_to_config+0x3d>
400d1145:	a0a022        	movi	a2, 160
400d1148:	161427        	beq	a4, a2, 400d1162 <rtc_clk_cpu_freq_mhz_to_config+0x42>
400d114b:	f0a082        	movi	a8, 240
400d114e:	020c      	movi.n	a2, 0
400d1150:	209487        	bne	a4, a8, 400d1174 <rtc_clk_cpu_freq_mhz_to_config+0x54>
400d1153:	290c      	movi.n	a9, 2
400d1155:	180c      	movi.n	a8, 1
400d1157:	e0a1a2        	movi	a10, 0x1e0
400d115a:	0002c6        	j	400d1169 <rtc_clk_cpu_freq_mhz_to_config+0x49>
400d115d:	490c      	movi.n	a9, 4
400d115f:	000046        	j	400d1164 <rtc_clk_cpu_freq_mhz_to_config+0x44>
400d1162:	290c      	movi.n	a9, 2
400d1164:	180c      	movi.n	a8, 1
400d1166:	40a1a2        	movi	a10, 0x140
400d1169:	0389      	s32i.n	a8, a3, 0
400d116b:	13a9      	s32i.n	a10, a3, 4
400d116d:	2399      	s32i.n	a9, a3, 8
400d116f:	3349      	s32i.n	a4, a3, 12
400d1171:	01a022        	movi	a2, 1
400d1174:	f01d      	retw.n
	...

400d1178 <rtc_clk_cpu_freq_get_config>:
400d1178:	004136        	entry	a1, 32
400d117b:	fbce51        	l32r	a5, 400d00b4 <_image_irom_vaddr+0x94> (3ff48070 <RTCCNTL+0x70>)
400d117e:	0020c0        	memw
400d1181:	002552        	l32i	a5, a5, 0
400d1184:	155b50        	extui	a5, a5, 27, 2
400d1187:	1e1526        	beqi	a5, 1, 400d11a9 <rtc_clk_cpu_freq_get_config+0x31>
400d118a:	562526        	beqi	a5, 2, 400d11e4 <rtc_clk_cpu_freq_get_config+0x6c>
400d118d:	033556        	bnez	a5, 400d11c4 <rtc_clk_cpu_freq_get_config+0x4c>
400d1190:	fbe331        	l32r	a3, 400d011c <_image_irom_vaddr+0xfc> (3ff66000 <TIMERG1+0x6000>)
400d1193:	0020c0        	memw
400d1196:	002332        	l32i	a3, a3, 0
400d1199:	fff5e5        	call8	400d10f8 <rtc_clk_xtal_freq_get>
400d119c:	943030        	extui	a3, a3, 0, 10
400d119f:	331b      	addi.n	a3, a3, 1
400d11a1:	0a6d      	mov.n	a6, a10
400d11a3:	c24a30        	quou	a4, a10, a3
400d11a6:	001486        	j	400d11fc <rtc_clk_cpu_freq_get_config+0x84>
400d11a9:	fbbf31        	l32r	a3, 400d00a8 <_image_irom_vaddr+0x88> (3ff0003c <__device_deps_end+0xaff138>)
400d11ac:	0020c0        	memw
400d11af:	002332        	l32i	a3, a3, 0
400d11b2:	143030        	extui	a3, a3, 0, 2
400d11b5:	034316        	beqz	a3, 400d11ed <rtc_clk_cpu_freq_get_config+0x75>
400d11b8:	381326        	beqi	a3, 1, 400d11f4 <rtc_clk_cpu_freq_get_config+0x7c>
400d11bb:	f0a042        	movi	a4, 240
400d11be:	e0a162        	movi	a6, 0x1e0
400d11c1:	372326        	beqi	a3, 2, 400d11fc <rtc_clk_cpu_freq_get_config+0x84>
400d11c4:	fbae81        	l32r	a8, 400d007c <_image_irom_vaddr+0x5c> (3ffb0004 <esp_log_default_level>)
400d11c7:	002882        	l32i	a8, a8, 0
400d11ca:	f88c      	beqz.n	a8, 400d11dd <rtc_clk_cpu_freq_get_config+0x65>
400d11cc:	b0e3e5        	call8	4008200c <esp_log_early_timestamp>
400d11cf:	0abd      	mov.n	a11, a10
400d11d1:	fbb3c1        	l32r	a12, 400d00a0 <_image_irom_vaddr+0x80> (3f400a05 <esp32_gpio_ports_addrs+0xa5>)
400d11d4:	fbd3a1        	l32r	a10, 400d0120 <_image_irom_vaddr+0x100> (3f400a2b <esp32_gpio_ports_addrs+0xcb>)
400d11d7:	fbac81        	l32r	a8, 400d0088 <_image_irom_vaddr+0x68> (40007d54 <esp_rom_printf>)
400d11da:	0008e0        	callx8	a8
400d11dd:	00e5a5        	call8	400d2038 <abort>
400d11e0:	000606        	j	400d11fc <rtc_clk_cpu_freq_get_config+0x84>
400d11e3:	00          	.byte 00
400d11e4:	840c      	movi.n	a4, 8
400d11e6:	130c      	movi.n	a3, 1
400d11e8:	046d      	mov.n	a6, a4
400d11ea:	000386        	j	400d11fc <rtc_clk_cpu_freq_get_config+0x84>
400d11ed:	045c      	movi.n	a4, 80
400d11ef:	430c      	movi.n	a3, 4
400d11f1:	000106        	j	400d11f9 <rtc_clk_cpu_freq_get_config+0x81>
400d11f4:	a0a042        	movi	a4, 160
400d11f7:	230c      	movi.n	a3, 2
400d11f9:	40a162        	movi	a6, 0x140
400d11fc:	0259      	s32i.n	a5, a2, 0
400d11fe:	1269      	s32i.n	a6, a2, 4
400d1200:	2239      	s32i.n	a3, a2, 8
400d1202:	3249      	s32i.n	a4, a2, 12
400d1204:	f01d      	retw.n
	...

400d1208 <rtc_clk_xtal_freq_update>:
400d1208:	004136        	entry	a1, 32
400d120b:	fbc291        	l32r	a9, 400d0114 <_image_irom_vaddr+0xf4> (3ff480b0 <RTCCNTL+0xb0>)
400d120e:	fbc5a1        	l32r	a10, 400d0124 <_image_irom_vaddr+0x104> (10001 <CONFIG_ESP_HEAP_MEM_POOL_REGION_1_SIZE+0x4001>)
400d1211:	0020c0        	memw
400d1214:	0988      	l32i.n	a8, a9, 0
400d1216:	1088a0        	and	a8, a8, a10
400d1219:	0498a7        	bne	a8, a10, 400d1221 <rtc_clk_xtal_freq_update+0x19>
400d121c:	180c      	movi.n	a8, 1
400d121e:	202280        	or	a2, a2, a8
400d1221:	f48020        	extui	a8, a2, 0, 16
400d1224:	112200        	slli	a2, a2, 16
400d1227:	208820        	or	a8, a8, a2
400d122a:	0020c0        	memw
400d122d:	0989      	s32i.n	a8, a9, 0
400d122f:	f01d      	retw.n
400d1231:	000000        	ill

400d1234 <rtc_clk_apb_freq_update>:
400d1234:	004136        	entry	a1, 32
400d1237:	418c20        	srli	a8, a2, 12
400d123a:	118800        	slli	a8, a8, 16
400d123d:	f42c20        	extui	a2, a2, 12, 16
400d1240:	202280        	or	a2, a2, a8
400d1243:	fb9e81        	l32r	a8, 400d00bc <_image_irom_vaddr+0x9c> (3ff480b4 <RTCCNTL+0xb4>)
400d1246:	0020c0        	memw
400d1249:	0829      	s32i.n	a2, a8, 0
400d124b:	f01d      	retw.n
400d124d:	000000        	ill

400d1250 <rtc_clk_cpu_freq_to_xtal>:
400d1250:	004136        	entry	a1, 32
400d1253:	20a220        	or	a10, a2, a2
400d1256:	af3965        	call8	400805ec <ets_update_cpu_frequency>
400d1259:	fbb091        	l32r	a9, 400d011c <_image_irom_vaddr+0xfc> (3ff66000 <TIMERG1+0x6000>)
400d125c:	00aca2        	movi	a10, 0xfffffc00
400d125f:	0020c0        	memw
400d1262:	002982        	l32i	a8, a9, 0
400d1265:	ffc332        	addi	a3, a3, -1
400d1268:	1088a0        	and	a8, a8, a10
400d126b:	943030        	extui	a3, a3, 0, 10
400d126e:	203380        	or	a3, a3, a8
400d1271:	0020c0        	memw
400d1274:	0939      	s32i.n	a3, a9, 0
400d1276:	fbac31        	l32r	a3, 400d0128 <_image_irom_vaddr+0x108> (3ff66004 <TIMERG1+0x6004>)
400d1279:	820b      	addi.n	a8, a2, -1
400d127b:	0020c0        	memw
400d127e:	0389      	s32i.n	a8, a3, 0
400d1280:	fb8d81        	l32r	a8, 400d00b4 <_image_irom_vaddr+0x94> (3ff48070 <RTCCNTL+0x70>)
400d1283:	fb8d91        	l32r	a9, 400d00b8 <_image_irom_vaddr+0x98> (e7ffffff <_rtc_bss_end+0x97ffffff>)
400d1286:	0020c0        	memw
400d1289:	0838      	l32i.n	a3, a8, 0
400d128b:	fb6aa1        	l32r	a10, 400d0034 <_image_irom_vaddr+0x14> (f4240 <CONFIG_ESP_HEAP_MEM_POOL_REGION_1_SIZE+0xe8240>)
400d128e:	103390        	and	a3, a3, a9
400d1291:	82a2a0        	mull	a10, a2, a10
400d1294:	0020c0        	memw
400d1297:	0839      	s32i.n	a3, a8, 0
400d1299:	fff9a5        	call8	400d1234 <rtc_clk_apb_freq_update>
400d129c:	fb8481        	l32r	a8, 400d00ac <_image_irom_vaddr+0x8c> (3ff4807c <RTCCNTL+0x7c>)
400d129f:	fb8491        	l32r	a9, 400d00b0 <_image_irom_vaddr+0x90> (ffffc7ff <_rtc_bss_end+0xafffc7ff>)
400d12a2:	0020c0        	memw
400d12a5:	0838      	l32i.n	a3, a8, 0
400d12a7:	103390        	and	a3, a3, a9
400d12aa:	0732e6        	bgei	a2, 3, 400d12b5 <rtc_clk_cpu_freq_to_xtal+0x65>
400d12ad:	120c      	movi.n	a2, 1
400d12af:	112240        	slli	a2, a2, 12
400d12b2:	000106        	j	400d12ba <rtc_clk_cpu_freq_to_xtal+0x6a>
400d12b5:	120c      	movi.n	a2, 1
400d12b7:	112230        	slli	a2, a2, 13
400d12ba:	203320        	or	a3, a3, a2
400d12bd:	0020c0        	memw
400d12c0:	0839      	s32i.n	a3, a8, 0
400d12c2:	f01d      	retw.n

400d12c4 <rtc_clk_cpu_freq_set_config>:
400d12c4:	004136        	entry	a1, 32
400d12c7:	ffe325        	call8	400d10f8 <rtc_clk_xtal_freq_get>
400d12ca:	fb7a31        	l32r	a3, 400d00b4 <_image_irom_vaddr+0x94> (3ff48070 <RTCCNTL+0x70>)
400d12cd:	0020c0        	memw
400d12d0:	002332        	l32i	a3, a3, 0
400d12d3:	153b30        	extui	a3, a3, 27, 2
400d12d6:	00e316        	beqz	a3, 400d12e8 <rtc_clk_cpu_freq_set_config+0x24>
400d12d9:	01a0b2        	movi	a11, 1
400d12dc:	fff725        	call8	400d1250 <rtc_clk_cpu_freq_to_xtal>
400d12df:	0069e5        	call8	400d197c <rtc_clk_wait_for_slow_cycle>
400d12e2:	021366        	bnei	a3, 1, 400d12e8 <rtc_clk_cpu_freq_set_config+0x24>
400d12e5:	ffa565        	call8	400d0d3c <rtc_clk_bbpll_disable>
400d12e8:	002232        	l32i	a3, a2, 0
400d12eb:	012356        	bnez	a3, 400d1301 <rtc_clk_cpu_freq_set_config+0x3d>
400d12ee:	0222b2        	l32i	a11, a2, 8
400d12f1:	022bf6        	bgeui	a11, 2, 400d12f7 <rtc_clk_cpu_freq_set_config+0x33>
400d12f4:	003506        	j	400d13cc <rtc_clk_cpu_freq_set_config+0x108>
400d12f7:	32a8      	l32i.n	a10, a2, 12
400d12f9:	fff565        	call8	400d1250 <rtc_clk_cpu_freq_to_xtal>
400d12fc:	003306        	j	400d13cc <rtc_clk_cpu_freq_set_config+0x108>
400d12ff:	00          	.byte 00
400d1300:	00          	.byte 00
400d1301:	021326        	beqi	a3, 1, 400d1307 <rtc_clk_cpu_freq_set_config+0x43>
400d1304:	001946        	j	400d136d <rtc_clk_cpu_freq_set_config+0xa9>
400d1307:	fb6f91        	l32r	a9, 400d00c4 <_image_irom_vaddr+0xa4> (3ff48000 <RTCCNTL>)
400d130a:	fb88a1        	l32r	a10, 400d012c <_image_irom_vaddr+0x10c> (fffbfabf <_rtc_bss_end+0xaffbfabf>)
400d130d:	0020c0        	memw
400d1310:	0988      	l32i.n	a8, a9, 0
400d1312:	8d1c      	movi.n	a13, 24
400d1314:	1088a0        	and	a8, a8, a10
400d1317:	0020c0        	memw
400d131a:	0989      	s32i.n	a8, a9, 0
400d131c:	0c0c      	movi.n	a12, 0
400d131e:	4b0c      	movi.n	a11, 4
400d1320:	66a0a2        	movi	a10, 102
400d1323:	af2d65        	call8	400805f8 <regi2c_ctrl_write_reg>
400d1326:	03cd      	mov.n	a12, a3
400d1328:	0d2c      	movi.n	a13, 32
400d132a:	4b0c      	movi.n	a11, 4
400d132c:	66a0a2        	movi	a10, 102
400d132f:	af2ca5        	call8	400805f8 <regi2c_ctrl_write_reg>
400d1332:	4c0c      	movi.n	a12, 4
400d1334:	20bcc0        	or	a11, a12, a12
400d1337:	9aa0d2        	movi	a13, 154
400d133a:	66a0a2        	movi	a10, 102
400d133d:	af2ba5        	call8	400805f8 <regi2c_ctrl_write_reg>
400d1340:	0d0c      	movi.n	a13, 0
400d1342:	ac0c      	movi.n	a12, 10
400d1344:	4b0c      	movi.n	a11, 4
400d1346:	66a0a2        	movi	a10, 102
400d1349:	af2ae5        	call8	400805f8 <regi2c_ctrl_write_reg>
400d134c:	0d0c      	movi.n	a13, 0
400d134e:	cc0c      	movi.n	a12, 12
400d1350:	4b0c      	movi.n	a11, 4
400d1352:	66a0a2        	movi	a10, 102
400d1355:	af2a25        	call8	400805f8 <regi2c_ctrl_write_reg>
400d1358:	006225        	call8	400d197c <rtc_clk_wait_for_slow_cycle>
400d135b:	ffd9e5        	call8	400d10f8 <rtc_clk_xtal_freq_get>
400d135e:	12b8      	l32i.n	a11, a2, 4
400d1360:	ffc165        	call8	400d0f78 <rtc_clk_bbpll_configure>
400d1363:	32a8      	l32i.n	a10, a2, 12
400d1365:	ff92a5        	call8	400d0c90 <rtc_clk_cpu_freq_to_pll_mhz>
400d1368:	001806        	j	400d13cc <rtc_clk_cpu_freq_set_config+0x108>
400d136b:	00          	.byte 00
400d136c:	00          	.byte 00
400d136d:	5b2366        	bnei	a3, 2, 400d13cc <rtc_clk_cpu_freq_set_config+0x108>
400d1370:	08a0a2        	movi	a10, 8
400d1373:	af27a5        	call8	400805ec <ets_update_cpu_frequency>
400d1376:	fb4d31        	l32r	a3, 400d00ac <_image_irom_vaddr+0x8c> (3ff4807c <RTCCNTL+0x7c>)
400d1379:	fb4d21        	l32r	a2, 400d00b0 <_image_irom_vaddr+0x90> (ffffc7ff <_rtc_bss_end+0xafffc7ff>)
400d137c:	0020c0        	memw
400d137f:	002382        	l32i	a8, a3, 0
400d1382:	108820        	and	a8, a8, a2
400d1385:	01a022        	movi	a2, 1
400d1388:	112230        	slli	a2, a2, 13
400d138b:	208820        	or	a8, a8, a2
400d138e:	0020c0        	memw
400d1391:	0389      	s32i.n	a8, a3, 0
400d1393:	fb6231        	l32r	a3, 400d011c <_image_irom_vaddr+0xfc> (3ff66000 <TIMERG1+0x6000>)
400d1396:	00ac82        	movi	a8, 0xfffffc00
400d1399:	0020c0        	memw
400d139c:	0328      	l32i.n	a2, a3, 0
400d139e:	102280        	and	a2, a2, a8
400d13a1:	0020c0        	memw
400d13a4:	0329      	s32i.n	a2, a3, 0
400d13a6:	fb4331        	l32r	a3, 400d00b4 <_image_irom_vaddr+0x94> (3ff48070 <RTCCNTL+0x70>)
400d13a9:	fb4321        	l32r	a2, 400d00b8 <_image_irom_vaddr+0x98> (e7ffffff <_rtc_bss_end+0x97ffffff>)
400d13ac:	0020c0        	memw
400d13af:	0388      	l32i.n	a8, a3, 0
400d13b1:	108820        	and	a8, a8, a2
400d13b4:	120c      	movi.n	a2, 1
400d13b6:	012240        	slli	a2, a2, 28
400d13b9:	208820        	or	a8, a8, a2
400d13bc:	0020c0        	memw
400d13bf:	0389      	s32i.n	a8, a3, 0
400d13c1:	fb3e21        	l32r	a2, 400d00bc <_image_irom_vaddr+0x9c> (3ff480b4 <RTCCNTL+0xb4>)
400d13c4:	fb5b31        	l32r	a3, 400d0130 <_image_irom_vaddr+0x110> (81b081b <CONFIG_FLASH_SIZE+0x7db081b>)
400d13c7:	0020c0        	memw
400d13ca:	0239      	s32i.n	a3, a2, 0
400d13cc:	f01d      	retw.n
	...

400d13d0 <rtc_clk_apb_freq_get>:
400d13d0:	004136        	entry	a1, 32
400d13d3:	fb3a21        	l32r	a2, 400d00bc <_image_irom_vaddr+0x9c> (3ff480b4 <RTCCNTL+0xb4>)
400d13d6:	0020c0        	memw
400d13d9:	0288      	l32i.n	a8, a2, 0
400d13db:	fb5621        	l32r	a2, 400d0134 <_image_irom_vaddr+0x114> (ffff000 <CONFIG_SYS_CLOCK_HW_CYCLES_PER_SEC+0x1b1d400>)
400d13de:	118840        	slli	a8, a8, 12
400d13e1:	108820        	and	a8, a8, a2
400d13e4:	fb5521        	l32r	a2, 400d0138 <_image_irom_vaddr+0x118> (7a120 <CONFIG_ESP_HEAP_MEM_POOL_REGION_1_SIZE+0x6e120>)
400d13e7:	882a      	add.n	a8, a8, a2
400d13e9:	fb5421        	l32r	a2, 400d013c <_image_irom_vaddr+0x11c> (431bde83 <_etext+0x30ea66f>)
400d13ec:	a28820        	muluh	a8, a8, a2
400d13ef:	fb1121        	l32r	a2, 400d0034 <_image_irom_vaddr+0x14> (f4240 <CONFIG_ESP_HEAP_MEM_POOL_REGION_1_SIZE+0xe8240>)
400d13f2:	d58280        	extui	a8, a8, 18, 14
400d13f5:	822820        	mull	a2, a8, a2
400d13f8:	f01d      	retw.n
	...

400d13fc <rtc_init>:
400d13fc:	004136        	entry	a1, 32
400d13ff:	fb3391        	l32r	a9, 400d00cc <_image_irom_vaddr+0xac> (3ff48030 <RTCCNTL+0x30>)
400d1402:	fb4fa1        	l32r	a10, 400d0140 <_image_irom_vaddr+0x120> (23ffffff <CONFIG_SYS_CLOCK_HW_CYCLES_PER_SEC+0x15b1e3ff>)
400d1405:	0020c0        	memw
400d1408:	0988      	l32i.n	a8, a9, 0
400d140a:	fb4eb1        	l32r	a11, 400d0144 <_image_irom_vaddr+0x124> (ffffff <CONFIG_FLASH_SIZE+0xbfffff>)
400d140d:	1088a0        	and	a8, a8, a10
400d1410:	0020c0        	memw
400d1413:	0989      	s32i.n	a8, a9, 0
400d1415:	fb3381        	l32r	a8, 400d00e4 <_image_irom_vaddr+0xc4> (3ff4801c <RTCCNTL+0x1c>)
400d1418:	759020        	extui	a9, a2, 16, 8
400d141b:	0020c0        	memw
400d141e:	08a8      	l32i.n	a10, a8, 0
400d1420:	019980        	slli	a9, a9, 24
400d1423:	10aab0        	and	a10, a10, a11
400d1426:	2099a0        	or	a9, a9, a10
400d1429:	0020c0        	memw
400d142c:	0899      	s32i.n	a9, a8, 0
400d142e:	0020c0        	memw
400d1431:	08a8      	l32i.n	a10, a8, 0
400d1433:	fb45b1        	l32r	a11, 400d0148 <_image_irom_vaddr+0x128> (ff003fff <_rtc_bss_end+0xaf003fff>)
400d1436:	749820        	extui	a9, a2, 8, 8
400d1439:	10aab0        	and	a10, a10, a11
400d143c:	119920        	slli	a9, a9, 14
400d143f:	2099a0        	or	a9, a9, a10
400d1442:	0020c0        	memw
400d1445:	0899      	s32i.n	a9, a8, 0
400d1447:	0020c0        	memw
400d144a:	08a8      	l32i.n	a10, a8, 0
400d144c:	fb27b1        	l32r	a11, 400d00e8 <_image_irom_vaddr+0xc8> (ffffc03f <_rtc_bss_end+0xafffc03f>)
400d144f:	749020        	extui	a9, a2, 0, 8
400d1452:	10aab0        	and	a10, a10, a11
400d1455:	1199a0        	slli	a9, a9, 6
400d1458:	2099a0        	or	a9, a9, a10
400d145b:	0020c0        	memw
400d145e:	0899      	s32i.n	a9, a8, 0
400d1460:	fb3b81        	l32r	a8, 400d014c <_image_irom_vaddr+0x12c> (3ff48078 <RTCCNTL+0x78>)
400d1463:	3a0c      	movi.n	a10, 3
400d1465:	0020c0        	memw
400d1468:	0898      	l32i.n	a9, a8, 0
400d146a:	01aa80        	slli	a10, a10, 24
400d146d:	2099a0        	or	a9, a9, a10
400d1470:	0020c0        	memw
400d1473:	0899      	s32i.n	a9, a8, 0
400d1475:	0020c0        	memw
400d1478:	0898      	l32i.n	a9, a8, 0
400d147a:	3a0c      	movi.n	a10, 3
400d147c:	01aa30        	slli	a10, a10, 29
400d147f:	2099a0        	or	a9, a9, a10
400d1482:	fb0aa1        	l32r	a10, 400d00ac <_image_irom_vaddr+0x8c> (3ff4807c <RTCCNTL+0x7c>)
400d1485:	0020c0        	memw
400d1488:	0899      	s32i.n	a9, a8, 0
400d148a:	0020c0        	memw
400d148d:	0a88      	l32i.n	a8, a10, 0
400d148f:	fb3091        	l32r	a9, 400d0150 <_image_irom_vaddr+0x130> (f1ffffff <_rtc_bss_end+0xa1ffffff>)
400d1492:	108890        	and	a8, a8, a9
400d1495:	190c      	movi.n	a9, 1
400d1497:	019950        	slli	a9, a9, 27
400d149a:	208890        	or	a8, a8, a9
400d149d:	0020c0        	memw
400d14a0:	0a89      	s32i.n	a8, a10, 0
400d14a2:	0020c0        	memw
400d14a5:	0a88      	l32i.n	a8, a10, 0
400d14a7:	fb2b91        	l32r	a9, 400d0154 <_image_irom_vaddr+0x134> (fe3fffff <_rtc_bss_end+0xae3fffff>)
400d14aa:	108890        	and	a8, a8, a9
400d14ad:	190c      	movi.n	a9, 1
400d14af:	019980        	slli	a9, a9, 24
400d14b2:	208890        	or	a8, a8, a9
400d14b5:	0020c0        	memw
400d14b8:	0a89      	s32i.n	a8, a10, 0
400d14ba:	028297        	bany	a2, a9, 400d14c0 <rtc_init+0xc4>
400d14bd:	0024c6        	j	400d1554 <rtc_init+0x158>
400d14c0:	fb2691        	l32r	a9, 400d0158 <_image_irom_vaddr+0x138> (3ff00044 <__device_deps_end+0xaff140>)
400d14c3:	fb26a1        	l32r	a10, 400d015c <_image_irom_vaddr+0x13c> (fffff7ff <_rtc_bss_end+0xaffff7ff>)
400d14c6:	0020c0        	memw
400d14c9:	0988      	l32i.n	a8, a9, 0
400d14cb:	ffaeb2        	movi	a11, 0xfffffeff
400d14ce:	1088a0        	and	a8, a8, a10
400d14d1:	0020c0        	memw
400d14d4:	0989      	s32i.n	a8, a9, 0
400d14d6:	fb2291        	l32r	a9, 400d0160 <_image_irom_vaddr+0x140> (3ff0005c <__device_deps_end+0xaff158>)
400d14d9:	0020c0        	memw
400d14dc:	0988      	l32i.n	a8, a9, 0
400d14de:	1088a0        	and	a8, a8, a10
400d14e1:	0020c0        	memw
400d14e4:	0989      	s32i.n	a8, a9, 0
400d14e6:	fb1f81        	l32r	a8, 400d0164 <_image_irom_vaddr+0x144> (3ff00094 <__device_deps_end+0xaff190>)
400d14e9:	03afa2        	movi	a10, -253
400d14ec:	0020c0        	memw
400d14ef:	0898      	l32i.n	a9, a8, 0
400d14f1:	1099a0        	and	a9, a9, a10
400d14f4:	0020c0        	memw
400d14f7:	0899      	s32i.n	a9, a8, 0
400d14f9:	0020c0        	memw
400d14fc:	0898      	l32i.n	a9, a8, 0
400d14fe:	da7c      	movi.n	a10, -3
400d1500:	1099a0        	and	a9, a9, a10
400d1503:	0020c0        	memw
400d1506:	0899      	s32i.n	a9, a8, 0
400d1508:	0020c0        	memw
400d150b:	0898      	l32i.n	a9, a8, 0
400d150d:	ea7c      	movi.n	a10, -2
400d150f:	1099a0        	and	a9, a9, a10
400d1512:	0020c0        	memw
400d1515:	0899      	s32i.n	a9, a8, 0
400d1517:	fb1481        	l32r	a8, 400d0168 <_image_irom_vaddr+0x148> (3ff000a0 <__device_deps_end+0xaff19c>)
400d151a:	0020c0        	memw
400d151d:	0898      	l32i.n	a9, a8, 0
400d151f:	090c      	movi.n	a9, 0
400d1521:	0020c0        	memw
400d1524:	0899      	s32i.n	a9, a8, 0
400d1526:	fb1191        	l32r	a9, 400d016c <_image_irom_vaddr+0x14c> (3ff000a4 <__device_deps_end+0xaff1a0>)
400d1529:	0020c0        	memw
400d152c:	0988      	l32i.n	a8, a9, 0
400d152e:	1088a0        	and	a8, a8, a10
400d1531:	0020c0        	memw
400d1534:	0989      	s32i.n	a8, a9, 0
400d1536:	fb0e81        	l32r	a8, 400d0170 <_image_irom_vaddr+0x150> (3ff000ac <__device_deps_end+0xaff1a8>)
400d1539:	0020c0        	memw
400d153c:	0898      	l32i.n	a9, a8, 0
400d153e:	1099b0        	and	a9, a9, a11
400d1541:	0020c0        	memw
400d1544:	0899      	s32i.n	a9, a8, 0
400d1546:	0020c0        	memw
400d1549:	0898      	l32i.n	a9, a8, 0
400d154b:	1099a0        	and	a9, a9, a10
400d154e:	0020c0        	memw
400d1551:	006892        	s32i	a9, a8, 0
400d1554:	02f297        	bbsi	a2, 25, 400d155a <rtc_init+0x15e>
400d1557:	007b46        	j	400d1748 <rtc_init+0x34c>
400d155a:	fad691        	l32r	a9, 400d00b4 <_image_irom_vaddr+0x94> (3ff48070 <RTCCNTL+0x70>)
400d155d:	fb05a1        	l32r	a10, 400d0174 <_image_irom_vaddr+0x154> (fbffffff <_rtc_bss_end+0xabffffff>)
400d1560:	0020c0        	memw
400d1563:	0988      	l32i.n	a8, a9, 0
400d1565:	fb06b1        	l32r	a11, 400d0180 <_image_irom_vaddr+0x160> (feffffff <_rtc_bss_end+0xaeffffff>)
400d1568:	1088a0        	and	a8, a8, a10
400d156b:	0020c0        	memw
400d156e:	0989      	s32i.n	a8, a9, 0
400d1570:	fad581        	l32r	a8, 400d00c4 <_image_irom_vaddr+0xa4> (3ff48000 <RTCCNTL>)
400d1573:	fb01a1        	l32r	a10, 400d0178 <_image_irom_vaddr+0x158> (ffffdfff <_rtc_bss_end+0xafffdfff>)
400d1576:	0020c0        	memw
400d1579:	0898      	l32i.n	a9, a8, 0
400d157b:	1099a0        	and	a9, a9, a10
400d157e:	0020c0        	memw
400d1581:	0899      	s32i.n	a9, a8, 0
400d1583:	0020c0        	memw
400d1586:	0898      	l32i.n	a9, a8, 0
400d1588:	fafda1        	l32r	a10, 400d017c <_image_irom_vaddr+0x15c> (ffbfffff <_rtc_bss_end+0xafbfffff>)
400d158b:	1099a0        	and	a9, a9, a10
400d158e:	0020c0        	memw
400d1591:	0899      	s32i.n	a9, a8, 0
400d1593:	0020c0        	memw
400d1596:	0898      	l32i.n	a9, a8, 0
400d1598:	fad1a1        	l32r	a10, 400d00dc <_image_irom_vaddr+0xbc> (fff7ffff <_rtc_bss_end+0xaff7ffff>)
400d159b:	1099a0        	and	a9, a9, a10
400d159e:	0020c0        	memw
400d15a1:	0899      	s32i.n	a9, a8, 0
400d15a3:	0020c0        	memw
400d15a6:	0898      	l32i.n	a9, a8, 0
400d15a8:	faaaa1        	l32r	a10, 400d0050 <_image_irom_vaddr+0x30> (fffeffff <_rtc_bss_end+0xaffeffff>)
400d15ab:	1099a0        	and	a9, a9, a10
400d15ae:	0020c0        	memw
400d15b1:	0899      	s32i.n	a9, a8, 0
400d15b3:	0020c0        	memw
400d15b6:	0898      	l32i.n	a9, a8, 0
400d15b8:	1a0c      	movi.n	a10, 1
400d15ba:	01aac0        	slli	a10, a10, 20
400d15bd:	2099a0        	or	a9, a9, a10
400d15c0:	0020c0        	memw
400d15c3:	0899      	s32i.n	a9, a8, 0
400d15c5:	0020c0        	memw
400d15c8:	0898      	l32i.n	a9, a8, 0
400d15ca:	1a0c      	movi.n	a10, 1
400d15cc:	01aaf0        	slli	a10, a10, 17
400d15cf:	2099a0        	or	a9, a9, a10
400d15d2:	0020c0        	memw
400d15d5:	0899      	s32i.n	a9, a8, 0
400d15d7:	0020c0        	memw
400d15da:	0898      	l32i.n	a9, a8, 0
400d15dc:	1a0c      	movi.n	a10, 1
400d15de:	11aa20        	slli	a10, a10, 14
400d15e1:	2099a0        	or	a9, a9, a10
400d15e4:	0020c0        	memw
400d15e7:	0899      	s32i.n	a9, a8, 0
400d15e9:	fab891        	l32r	a9, 400d00cc <_image_irom_vaddr+0xac> (3ff48030 <RTCCNTL+0x30>)
400d15ec:	0020c0        	memw
400d15ef:	09a8      	l32i.n	a10, a9, 0
400d15f1:	10aab0        	and	a10, a10, a11
400d15f4:	0020c0        	memw
400d15f7:	09a9      	s32i.n	a10, a9, 0
400d15f9:	0020c0        	memw
400d15fc:	09a8      	l32i.n	a10, a9, 0
400d15fe:	1b0c      	movi.n	a11, 1
400d1600:	01bb90        	slli	a11, a11, 23
400d1603:	20aab0        	or	a10, a10, a11
400d1606:	0020c0        	memw
400d1609:	09a9      	s32i.n	a10, a9, 0
400d160b:	0020c0        	memw
400d160e:	0898      	l32i.n	a9, a8, 0
400d1610:	fad3a1        	l32r	a10, 400d015c <_image_irom_vaddr+0x13c> (fffff7ff <_rtc_bss_end+0xaffff7ff>)
400d1613:	1099a0        	and	a9, a9, a10
400d1616:	0020c0        	memw
400d1619:	0899      	s32i.n	a9, a8, 0
400d161b:	0020c0        	memw
400d161e:	0898      	l32i.n	a9, a8, 0
400d1620:	ffada2        	movi	a10, 0xfffffdff
400d1623:	1099a0        	and	a9, a9, a10
400d1626:	0020c0        	memw
400d1629:	0899      	s32i.n	a9, a8, 0
400d162b:	faa081        	l32r	a8, 400d00ac <_image_irom_vaddr+0x8c> (3ff4807c <RTCCNTL+0x7c>)
400d162e:	fa8aa1        	l32r	a10, 400d0058 <_image_irom_vaddr+0x38> (7fffffff <_rtc_bss_end+0x2fffffff>)
400d1631:	0020c0        	memw
400d1634:	0898      	l32i.n	a9, a8, 0
400d1636:	1099a0        	and	a9, a9, a10
400d1639:	0020c0        	memw
400d163c:	0899      	s32i.n	a9, a8, 0
400d163e:	0020c0        	memw
400d1641:	0898      	l32i.n	a9, a8, 0
400d1643:	faaca1        	l32r	a10, 400d00f4 <_image_irom_vaddr+0xd4> (dfffffff <_rtc_bss_end+0x8fffffff>)
400d1646:	1099a0        	and	a9, a9, a10
400d1649:	0020c0        	memw
400d164c:	0899      	s32i.n	a9, a8, 0
400d164e:	0f72a7        	bbci	a2, 26, 400d1661 <rtc_init+0x265>
400d1651:	0020c0        	memw
400d1654:	0828      	l32i.n	a2, a8, 0
400d1656:	190c      	movi.n	a9, 1
400d1658:	019940        	slli	a9, a9, 28
400d165b:	202290        	or	a2, a2, a9
400d165e:	000286        	j	400d166c <rtc_init+0x270>
400d1661:	0020c0        	memw
400d1664:	0828      	l32i.n	a2, a8, 0
400d1666:	fac791        	l32r	a9, 400d0184 <_image_irom_vaddr+0x164> (efffffff <_rtc_bss_end+0x9fffffff>)
400d1669:	102290        	and	a2, a2, a9
400d166c:	0020c0        	memw
400d166f:	0829      	s32i.n	a2, a8, 0
400d1671:	fac581        	l32r	a8, 400d0188 <_image_irom_vaddr+0x168> (3ff48084 <RTCCNTL+0x84>)
400d1674:	f96c      	movi.n	a9, -17
400d1676:	0020c0        	memw
400d1679:	0828      	l32i.n	a2, a8, 0
400d167b:	fa77a1        	l32r	a10, 400d0058 <_image_irom_vaddr+0x38> (7fffffff <_rtc_bss_end+0x2fffffff>)
400d167e:	102290        	and	a2, a2, a9
400d1681:	0020c0        	memw
400d1684:	0829      	s32i.n	a2, a8, 0
400d1686:	0020c0        	memw
400d1689:	0828      	l32i.n	a2, a8, 0
400d168b:	fac091        	l32r	a9, 400d018c <_image_irom_vaddr+0x16c> (ffefffff <_rtc_bss_end+0xafefffff>)
400d168e:	102290        	and	a2, a2, a9
400d1691:	0020c0        	memw
400d1694:	0829      	s32i.n	a2, a8, 0
400d1696:	0020c0        	memw
400d1699:	0828      	l32i.n	a2, a8, 0
400d169b:	fabd91        	l32r	a9, 400d0190 <_image_irom_vaddr+0x170> (fffbffff <_rtc_bss_end+0xaffbffff>)
400d169e:	102290        	and	a2, a2, a9
400d16a1:	0020c0        	memw
400d16a4:	0829      	s32i.n	a2, a8, 0
400d16a6:	0020c0        	memw
400d16a9:	0828      	l32i.n	a2, a8, 0
400d16ab:	faba91        	l32r	a9, 400d0194 <_image_irom_vaddr+0x174> (fffeaabf <_rtc_bss_end+0xaffeaabf>)
400d16ae:	102290        	and	a2, a2, a9
400d16b1:	fab991        	l32r	a9, 400d0198 <_image_irom_vaddr+0x178> (3ff48080 <RTCCNTL+0x80>)
400d16b4:	0020c0        	memw
400d16b7:	0829      	s32i.n	a2, a8, 0
400d16b9:	0020c0        	memw
400d16bc:	0928      	l32i.n	a2, a9, 0
400d16be:	fab781        	l32r	a8, 400d019c <_image_irom_vaddr+0x17c> (fffedfff <_rtc_bss_end+0xaffedfff>)
400d16c1:	102280        	and	a2, a2, a8
400d16c4:	0020c0        	memw
400d16c7:	0929      	s32i.n	a2, a9, 0
400d16c9:	0020c0        	memw
400d16cc:	0928      	l32i.n	a2, a9, 0
400d16ce:	fa8381        	l32r	a8, 400d00dc <_image_irom_vaddr+0xbc> (fff7ffff <_rtc_bss_end+0xaff7ffff>)
400d16d1:	102280        	and	a2, a2, a8
400d16d4:	fab381        	l32r	a8, 400d01a0 <_image_irom_vaddr+0x180> (3ff48088 <RTCCNTL+0x88>)
400d16d7:	0020c0        	memw
400d16da:	0929      	s32i.n	a2, a9, 0
400d16dc:	0020c0        	memw
400d16df:	0828      	l32i.n	a2, a8, 0
400d16e1:	1022a0        	and	a2, a2, a10
400d16e4:	0020c0        	memw
400d16e7:	0829      	s32i.n	a2, a8, 0
400d16e9:	0020c0        	memw
400d16ec:	0828      	l32i.n	a2, a8, 0
400d16ee:	fa81a1        	l32r	a10, 400d00f4 <_image_irom_vaddr+0xd4> (dfffffff <_rtc_bss_end+0x8fffffff>)
400d16f1:	1022a0        	and	a2, a2, a10
400d16f4:	0020c0        	memw
400d16f7:	0829      	s32i.n	a2, a8, 0
400d16f9:	0020c0        	memw
400d16fc:	0828      	l32i.n	a2, a8, 0
400d16fe:	faa9a1        	l32r	a10, 400d01a4 <_image_irom_vaddr+0x184> (f555ffff <_rtc_bss_end+0xa555ffff>)
400d1701:	1022a0        	and	a2, a2, a10
400d1704:	0020c0        	memw
400d1707:	0829      	s32i.n	a2, a8, 0
400d1709:	0020c0        	memw
400d170c:	0928      	l32i.n	a2, a9, 0
400d170e:	aa7c      	movi.n	a10, -6
400d1710:	1022a0        	and	a2, a2, a10
400d1713:	0020c0        	memw
400d1716:	0929      	s32i.n	a2, a9, 0
400d1718:	0020c0        	memw
400d171b:	0928      	l32i.n	a2, a9, 0
400d171d:	dfafa2        	movi	a10, -33
400d1720:	1022a0        	and	a2, a2, a10
400d1723:	0020c0        	memw
400d1726:	0929      	s32i.n	a2, a9, 0
400d1728:	0020c0        	memw
400d172b:	0828      	l32i.n	a2, a8, 0
400d172d:	fa9e91        	l32r	a9, 400d01a8 <_image_irom_vaddr+0x188> (ffffbfff <_rtc_bss_end+0xafffbfff>)
400d1730:	102290        	and	a2, a2, a9
400d1733:	0020c0        	memw
400d1736:	0829      	s32i.n	a2, a8, 0
400d1738:	0020c0        	memw
400d173b:	0828      	l32i.n	a2, a8, 0
400d173d:	fa9b91        	l32r	a9, 400d01ac <_image_irom_vaddr+0x18c> (ffffefff <_rtc_bss_end+0xafffefff>)
400d1740:	102290        	and	a2, a2, a9
400d1743:	0020c0        	memw
400d1746:	0829      	s32i.n	a2, a8, 0
400d1748:	fa9691        	l32r	a9, 400d01a0 <_image_irom_vaddr+0x180> (3ff48088 <RTCCNTL+0x88>)
400d174b:	180c      	movi.n	a8, 1
400d174d:	0020c0        	memw
400d1750:	0928      	l32i.n	a2, a9, 0
400d1752:	018840        	slli	a8, a8, 28
400d1755:	202280        	or	a2, a2, a8
400d1758:	0020c0        	memw
400d175b:	0929      	s32i.n	a2, a9, 0
400d175d:	fa8a91        	l32r	a9, 400d0188 <_image_irom_vaddr+0x168> (3ff48084 <RTCCNTL+0x84>)
400d1760:	180c      	movi.n	a8, 1
400d1762:	0020c0        	memw
400d1765:	0928      	l32i.n	a2, a9, 0
400d1767:	0188f0        	slli	a8, a8, 17
400d176a:	202280        	or	a2, a2, a8
400d176d:	0020c0        	memw
400d1770:	0929      	s32i.n	a2, a9, 0
400d1772:	fa8f21        	l32r	a2, 400d01b0 <_image_irom_vaddr+0x190> (3ff4803c <RTCCNTL+0x3c>)
400d1775:	080c      	movi.n	a8, 0
400d1777:	0020c0        	memw
400d177a:	0289      	s32i.n	a8, a2, 0
400d177c:	fa8e21        	l32r	a2, 400d01b4 <_image_irom_vaddr+0x194> (3ff48048 <RTCCNTL+0x48>)
400d177f:	f87c      	movi.n	a8, -1
400d1781:	0020c0        	memw
400d1784:	0289      	s32i.n	a8, a2, 0
400d1786:	f01d      	retw.n

400d1788 <rtc_clk_cal_internal>:
400d1788:	004136        	entry	a1, 32
400d178b:	fa4a51        	l32r	a5, 400d00b4 <_image_irom_vaddr+0x94> (3ff48070 <RTCCNTL+0x70>)
400d178e:	160c      	movi.n	a6, 1
400d1790:	0020c0        	memw
400d1793:	0548      	l32i.n	a4, a5, 0
400d1795:	044840        	extui	a4, a4, 8, 1
400d1798:	0d2266        	bnei	a2, 2, 400d17a9 <rtc_clk_cal_internal+0x21>
400d179b:	0a1467        	beq	a4, a6, 400d17a9 <rtc_clk_cal_internal+0x21>
400d179e:	0020c0        	memw
400d17a1:	0588      	l32i.n	a8, a5, 0
400d17a3:	00a162        	movi	a6, 0x100
400d17a6:	000286        	j	400d17b4 <rtc_clk_cal_internal+0x2c>
400d17a9:	0f1266        	bnei	a2, 1, 400d17bc <rtc_clk_cal_internal+0x34>
400d17ac:	0020c0        	memw
400d17af:	0588      	l32i.n	a8, a5, 0
400d17b1:	00a262        	movi	a6, 0x200
400d17b4:	208860        	or	a8, a8, a6
400d17b7:	0020c0        	memw
400d17ba:	0589      	s32i.n	a8, a5, 0
400d17bc:	fa8191        	l32r	a9, 400d01c0 <_image_irom_vaddr+0x1a0> (3ff5f068 <TIMERG0+0x68>)
400d17bf:	fa8161        	l32r	a6, 400d01c4 <_image_irom_vaddr+0x1a4> (ffff9fff <_rtc_bss_end+0xafff9fff>)
400d17c2:	0020c0        	memw
400d17c5:	0958      	l32i.n	a5, a9, 0
400d17c7:	3a0c      	movi.n	a10, 3
400d17c9:	118230        	slli	a8, a2, 13
400d17cc:	11aa30        	slli	a10, a10, 13
400d17cf:	105560        	and	a5, a5, a6
400d17d2:	1088a0        	and	a8, a8, a10
400d17d5:	208850        	or	a8, a8, a5
400d17d8:	0020c0        	memw
400d17db:	0989      	s32i.n	a8, a9, 0
400d17dd:	0020c0        	memw
400d17e0:	0958      	l32i.n	a5, a9, 0
400d17e2:	fa7261        	l32r	a6, 400d01ac <_image_irom_vaddr+0x18c> (ffffefff <_rtc_bss_end+0xafffefff>)
400d17e5:	105560        	and	a5, a5, a6
400d17e8:	fa7861        	l32r	a6, 400d01c8 <_image_irom_vaddr+0x1a8> (7fff0000 <_rtc_bss_end+0x2fff0000>)
400d17eb:	0020c0        	memw
400d17ee:	0959      	s32i.n	a5, a9, 0
400d17f0:	115300        	slli	a5, a3, 16
400d17f3:	0020c0        	memw
400d17f6:	0988      	l32i.n	a8, a9, 0
400d17f8:	105560        	and	a5, a5, a6
400d17fb:	fa7461        	l32r	a6, 400d01cc <_image_irom_vaddr+0x1ac> (8000ffff <_rtc_bss_end+0x3000ffff>)
400d17fe:	108860        	and	a8, a8, a6
400d1801:	205580        	or	a5, a5, a8
400d1804:	0020c0        	memw
400d1807:	0959      	s32i.n	a5, a9, 0
400d1809:	fa2a51        	l32r	a5, 400d00b4 <_image_irom_vaddr+0x94> (3ff48070 <RTCCNTL+0x70>)
400d180c:	01a082        	movi	a8, 1
400d180f:	0020c0        	memw
400d1812:	002552        	l32i	a5, a5, 0
400d1815:	11c810        	slli	a12, a8, 15
400d1818:	202226        	beqi	a2, 2, 400d183c <rtc_clk_cal_internal+0xb4>
400d181b:	00a062        	movi	a6, 0
400d181e:	938620        	movnez	a8, a6, a2
400d1821:	155e50        	extui	a5, a5, 30, 2
400d1824:	748080        	extui	a8, a8, 0, 8
400d1827:	021566        	bnei	a5, 1, 400d182d <rtc_clk_cal_internal+0xa5>
400d182a:	0e9867        	bne	a8, a6, 400d183c <rtc_clk_cal_internal+0xb4>
400d182d:	fa62c1        	l32r	a12, 400d01b8 <_image_irom_vaddr+0x198> (81b3 <CONFIG_SEM_VALUE_MAX+0x1b4>)
400d1830:	081226        	beqi	a2, 1, 400d183c <rtc_clk_cal_internal+0xb4>
400d1833:	022566        	bnei	a5, 2, 400d1839 <rtc_clk_cal_internal+0xb1>
400d1836:	002856        	bnez	a8, 400d183c <rtc_clk_cal_internal+0xb4>
400d1839:	fa60c1        	l32r	a12, 400d01bc <_image_irom_vaddr+0x19c> (249f0 <CONFIG_ESP_HEAP_MEM_POOL_REGION_1_SIZE+0x189f0>)
400d183c:	f9fea1        	l32r	a10, 400d0034 <_image_irom_vaddr+0x14> (f4240 <CONFIG_ESP_HEAP_MEM_POOL_REGION_1_SIZE+0xe8240>)
400d183f:	0d0c      	movi.n	a13, 0
400d1841:	a2b3a0        	muluh	a11, a3, a10
400d1844:	82a3a0        	mull	a10, a3, a10
400d1847:	fa1381        	l32r	a8, 400d0094 <_image_irom_vaddr+0x74> (4000cff8 <__udivdi3>)
400d184a:	0008e0        	callx8	a8
400d184d:	0a3d      	mov.n	a3, a10
400d184f:	0a6d      	mov.n	a6, a10
400d1851:	ff8a65        	call8	400d10f8 <rtc_clk_xtal_freq_get>
400d1854:	0acc      	bnez.n	a10, 400d1858 <rtc_clk_cal_internal+0xd0>
400d1856:	8a2c      	movi.n	a10, 40
400d1858:	fa5e51        	l32r	a5, 400d01d0 <_image_irom_vaddr+0x1b0> (1ffffff <CONFIG_FLASH_SIZE+0x1bfffff>)
400d185b:	c255a0        	quou	a5, a5, a10
400d185e:	223657        	bltu	a6, a5, 400d1884 <rtc_clk_cal_internal+0xfc>
400d1861:	fa0621        	l32r	a2, 400d007c <_image_irom_vaddr+0x5c> (3ffb0004 <esp_log_default_level>)
400d1864:	0228      	l32i.n	a2, a2, 0
400d1866:	32cc      	bnez.n	a2, 400d186d <rtc_clk_cal_internal+0xe5>
400d1868:	020c      	movi.n	a2, 0
400d186a:	002806        	j	400d190e <rtc_clk_cal_internal+0x186>
400d186d:	b079e5        	call8	4008200c <esp_log_early_timestamp>
400d1870:	0abd      	mov.n	a11, a10
400d1872:	fa58c1        	l32r	a12, 400d01d4 <_image_irom_vaddr+0x1b4> (3f400ad2 <CSWTCH$47+0x11>)
400d1875:	fa58a1        	l32r	a10, 400d01d8 <_image_irom_vaddr+0x1b8> (3f400adb <CSWTCH$47+0x1a>)
400d1878:	fa0481        	l32r	a8, 400d0088 <_image_irom_vaddr+0x68> (40007d54 <esp_rom_printf>)
400d187b:	0008e0        	callx8	a8
400d187e:	fff986        	j	400d1868 <rtc_clk_cal_internal+0xe0>
400d1881:	00          	.byte 00
400d1882:	00          	.byte 00
400d1883:	00          	.byte 00
400d1884:	fa4f51        	l32r	a5, 400d01c0 <_image_irom_vaddr+0x1a0> (3ff5f068 <TIMERG0+0x68>)
400d1887:	f9f491        	l32r	a9, 400d0058 <_image_irom_vaddr+0x38> (7fffffff <_rtc_bss_end+0x2fffffff>)
400d188a:	0020c0        	memw
400d188d:	002582        	l32i	a8, a5, 0
400d1890:	108890        	and	a8, a8, a9
400d1893:	0020c0        	memw
400d1896:	006582        	s32i	a8, a5, 0
400d1899:	0020c0        	memw
400d189c:	002582        	l32i	a8, a5, 0
400d189f:	f97c      	movi.n	a9, -1
400d18a1:	019910        	slli	a9, a9, 31
400d18a4:	208890        	or	a8, a8, a9
400d18a7:	0020c0        	memw
400d18aa:	0589      	s32i.n	a8, a5, 0
400d18ac:	03ad      	mov.n	a10, a3
400d18ae:	af7365        	call8	40080fe4 <z_impl_k_busy_wait>
400d18b1:	0001c6        	j	400d18bc <rtc_clk_cal_internal+0x134>
400d18b4:	330b      	addi.n	a3, a3, -1
400d18b6:	fa0d81        	l32r	a8, 400d00ec <_image_irom_vaddr+0xcc> (40008534 <esp_rom_delay_us>)
400d18b9:	0008e0        	callx8	a8
400d18bc:	0020c0        	memw
400d18bf:	002582        	l32i	a8, a5, 0
400d18c2:	01a0a2        	movi	a10, 1
400d18c5:	048f80        	extui	a8, a8, 15, 1
400d18c8:	0818a7        	beq	a8, a10, 400d18d4 <rtc_clk_cal_internal+0x14c>
400d18cb:	318f30        	srai	a8, a3, 31
400d18ce:	c08830        	sub	a8, a8, a3
400d18d1:	fdf896        	bltz	a8, 400d18b4 <rtc_clk_cal_internal+0x12c>
400d18d4:	f9f851        	l32r	a5, 400d00b4 <_image_irom_vaddr+0x94> (3ff48070 <RTCCNTL+0x70>)
400d18d7:	ffae92        	movi	a9, 0xfffffeff
400d18da:	0020c0        	memw
400d18dd:	0588      	l32i.n	a8, a5, 0
400d18df:	114480        	slli	a4, a4, 8
400d18e2:	108890        	and	a8, a8, a9
400d18e5:	204840        	or	a4, a8, a4
400d18e8:	0020c0        	memw
400d18eb:	0549      	s32i.n	a4, a5, 0
400d18ed:	0f1266        	bnei	a2, 1, 400d1900 <rtc_clk_cal_internal+0x178>
400d18f0:	0020c0        	memw
400d18f3:	0528      	l32i.n	a2, a5, 0
400d18f5:	ffad42        	movi	a4, 0xfffffdff
400d18f8:	102240        	and	a2, a2, a4
400d18fb:	0020c0        	memw
400d18fe:	0529      	s32i.n	a2, a5, 0
400d1900:	f64316        	beqz	a3, 400d1868 <rtc_clk_cal_internal+0xe0>
400d1903:	fa3621        	l32r	a2, 400d01dc <_image_irom_vaddr+0x1bc> (3ff5f06c <TIMERG0+0x6c>)
400d1906:	0020c0        	memw
400d1909:	0228      	l32i.n	a2, a2, 0
400d190b:	412720        	srli	a2, a2, 7
400d190e:	f01d      	retw.n

400d1910 <rtc_clk_cal_ratio>:
400d1910:	004136        	entry	a1, 32
400d1913:	03bd      	mov.n	a11, a3
400d1915:	02ad      	mov.n	a10, a2
400d1917:	ffe725        	call8	400d1788 <rtc_clk_cal_internal>
400d191a:	0abd      	mov.n	a11, a10
400d191c:	03cd      	mov.n	a12, a3
400d191e:	0d0c      	movi.n	a13, 0
400d1920:	01aad0        	slli	a10, a10, 19
400d1923:	41bdb0        	srli	a11, a11, 13
400d1926:	f9db81        	l32r	a8, 400d0094 <_image_irom_vaddr+0x74> (4000cff8 <__udivdi3>)
400d1929:	0008e0        	callx8	a8
400d192c:	0a2d      	mov.n	a2, a10
400d192e:	f01d      	retw.n

400d1930 <rtc_clk_cal>:
400d1930:	004136        	entry	a1, 32
400d1933:	ff7c65        	call8	400d10f8 <rtc_clk_xtal_freq_get>
400d1936:	0a4d      	mov.n	a4, a10
400d1938:	03bd      	mov.n	a11, a3
400d193a:	02ad      	mov.n	a10, a2
400d193c:	ffe4a5        	call8	400d1788 <rtc_clk_cal_internal>
400d193f:	418da0        	srli	a8, a10, 13
400d1942:	01aad0        	slli	a10, a10, 19
400d1945:	9a0b      	addi.n	a9, a10, -1
400d1947:	82c430        	mull	a12, a4, a3
400d194a:	a2d430        	muluh	a13, a4, a3
400d194d:	130c      	movi.n	a3, 1
400d194f:	0139a7        	bltu	a9, a10, 400d1954 <rtc_clk_cal+0x24>
400d1952:	030c      	movi.n	a3, 0
400d1954:	01bd10        	slli	a11, a13, 31
400d1957:	41a1c0        	srli	a10, a12, 1
400d195a:	20aba0        	or	a10, a11, a10
400d195d:	880b      	addi.n	a8, a8, -1
400d195f:	a9aa      	add.n	a10, a9, a10
400d1961:	838a      	add.n	a8, a3, a8
400d1963:	1b0c      	movi.n	a11, 1
400d1965:	4131d0        	srli	a3, a13, 1
400d1968:	023a97        	bltu	a10, a9, 400d196e <rtc_clk_cal+0x3e>
400d196b:	00a0b2        	movi	a11, 0
400d196e:	883a      	add.n	a8, a8, a3
400d1970:	bb8a      	add.n	a11, a11, a8
400d1972:	f9c881        	l32r	a8, 400d0094 <_image_irom_vaddr+0x74> (4000cff8 <__udivdi3>)
400d1975:	0008e0        	callx8	a8
400d1978:	0a2d      	mov.n	a2, a10
400d197a:	f01d      	retw.n

400d197c <rtc_clk_wait_for_slow_cycle>:
400d197c:	004136        	entry	a1, 32
400d197f:	fa1021        	l32r	a2, 400d01c0 <_image_irom_vaddr+0x1a0> (3ff5f068 <TIMERG0+0x68>)
400d1982:	fa1791        	l32r	a9, 400d01e0 <_image_irom_vaddr+0x1c0> (7fffefff <_rtc_bss_end+0x2fffefff>)
400d1985:	0020c0        	memw
400d1988:	0288      	l32i.n	a8, a2, 0
400d198a:	108890        	and	a8, a8, a9
400d198d:	0020c0        	memw
400d1990:	0289      	s32i.n	a8, a2, 0
400d1992:	0020c0        	memw
400d1995:	0288      	l32i.n	a8, a2, 0
400d1997:	f9ac91        	l32r	a9, 400d0048 <_image_irom_vaddr+0x28> (ffff7fff <_rtc_bss_end+0xafff7fff>)
400d199a:	108890        	and	a8, a8, a9
400d199d:	0020c0        	memw
400d19a0:	0289      	s32i.n	a8, a2, 0
400d19a2:	0020c0        	memw
400d19a5:	0288      	l32i.n	a8, a2, 0
400d19a7:	fa0791        	l32r	a9, 400d01c4 <_image_irom_vaddr+0x1a4> (ffff9fff <_rtc_bss_end+0xafff9fff>)
400d19aa:	108890        	and	a8, a8, a9
400d19ad:	0020c0        	memw
400d19b0:	0289      	s32i.n	a8, a2, 0
400d19b2:	0020c0        	memw
400d19b5:	0288      	l32i.n	a8, a2, 0
400d19b7:	fa0591        	l32r	a9, 400d01cc <_image_irom_vaddr+0x1ac> (8000ffff <_rtc_bss_end+0x3000ffff>)
400d19ba:	108890        	and	a8, a8, a9
400d19bd:	0020c0        	memw
400d19c0:	0289      	s32i.n	a8, a2, 0
400d19c2:	0020c0        	memw
400d19c5:	0288      	l32i.n	a8, a2, 0
400d19c7:	f97c      	movi.n	a9, -1
400d19c9:	019910        	slli	a9, a9, 31
400d19cc:	208890        	or	a8, a8, a9
400d19cf:	0020c0        	memw
400d19d2:	0289      	s32i.n	a8, a2, 0
400d19d4:	1a0c      	movi.n	a10, 1
400d19d6:	f9c581        	l32r	a8, 400d00ec <_image_irom_vaddr+0xcc> (40008534 <esp_rom_delay_us>)
400d19d9:	0008e0        	callx8	a8
400d19dc:	0020c0        	memw
400d19df:	0288      	l32i.n	a8, a2, 0
400d19e1:	ef68f7        	bbci	a8, 15, 400d19d4 <rtc_clk_wait_for_slow_cycle+0x58>
400d19e4:	f01d      	retw.n
	...

400d19e8 <rtc_clk_xtal_freq_estimate>:
400d19e8:	004136        	entry	a1, 32
400d19eb:	ff4c65        	call8	400d0eb0 <rtc_clk_8m_enabled>
400d19ee:	ff4da5        	call8	400d0ec8 <rtc_clk_8md256_enabled>
400d19f1:	009a56        	bnez	a10, 400d19fe <rtc_clk_xtal_freq_estimate+0x16>
400d19f4:	1b0c      	movi.n	a11, 1
400d19f6:	0bad      	mov.n	a10, a11
400d19f8:	201110        	or	a1, a1, a1
400d19fb:	ff4325        	call8	400d0e2c <rtc_clk_8m_enable>
400d19fe:	0aa0b2        	movi	a11, 10
400d1a01:	01a0a2        	movi	a10, 1
400d1a04:	fff0a5        	call8	400d1910 <rtc_clk_cal_ratio>
400d1a07:	f9f721        	l32r	a2, 400d01e4 <_image_irom_vaddr+0x1c4> (81b320 <CONFIG_FLASH_SIZE+0x41b320>)
400d1a0a:	f9f7c1        	l32r	a12, 400d01e8 <_image_irom_vaddr+0x1c8> (f424000 <CONFIG_SYS_CLOCK_HW_CYCLES_PER_SEC+0xf42400>)
400d1a0d:	a2ba20        	muluh	a11, a10, a2
400d1a10:	82aa20        	mull	a10, a10, a2
400d1a13:	00a0d2        	movi	a13, 0
400d1a16:	f99f81        	l32r	a8, 400d0094 <_image_irom_vaddr+0x74> (4000cff8 <__udivdi3>)
400d1a19:	0008e0        	callx8	a8
400d1a1c:	112b30        	slli	a2, a11, 13
400d1a1f:	c5a3a0        	extui	a10, a10, 19, 13
400d1a22:	2022a0        	or	a2, a2, a10
400d1a25:	382c      	movi.n	a8, 35
400d1a27:	1d3827        	bltu	a8, a2, 400d1a48 <rtc_clk_xtal_freq_estimate+0x60>
400d1a2a:	182c      	movi.n	a8, 33
400d1a2c:	3c3827        	bltu	a8, a2, 400d1a6c <rtc_clk_xtal_freq_estimate+0x84>
400d1a2f:	f81c      	movi.n	a8, 31
400d1a31:	0bb827        	bgeu	a8, a2, 400d1a40 <rtc_clk_xtal_freq_estimate+0x58>
400d1a34:	f99281        	l32r	a8, 400d007c <_image_irom_vaddr+0x5c> (3ffb0004 <esp_log_default_level>)
400d1a37:	0888      	l32i.n	a8, a8, 0
400d1a39:	2928b6        	bltui	a8, 2, 400d1a66 <rtc_clk_xtal_freq_estimate+0x7e>
400d1a3c:	0004c6        	j	400d1a53 <rtc_clk_xtal_freq_estimate+0x6b>
400d1a3f:	00          	.byte 00
400d1a40:	481c      	movi.n	a8, 20
400d1a42:	46b827        	bgeu	a8, a2, 400d1a8c <rtc_clk_xtal_freq_estimate+0xa4>
400d1a45:	000746        	j	400d1a66 <rtc_clk_xtal_freq_estimate+0x7e>
400d1a48:	dcc282        	addi	a8, a2, -36
400d1a4b:	990c      	movi.n	a9, 9
400d1a4d:	5fb987        	bgeu	a9, a8, 400d1ab0 <rtc_clk_xtal_freq_estimate+0xc8>
400d1a50:	000e06        	j	400d1a8c <rtc_clk_xtal_freq_estimate+0xa4>
400d1a53:	b05ba5        	call8	4008200c <esp_log_early_timestamp>
400d1a56:	0abd      	mov.n	a11, a10
400d1a58:	f9e5c1        	l32r	a12, 400d01ec <_image_irom_vaddr+0x1cc> (3f400b19 <CSWTCH$47+0x58>)
400d1a5b:	f9e5a1        	l32r	a10, 400d01f0 <_image_irom_vaddr+0x1d0> (3f400b26 <CSWTCH$47+0x65>)
400d1a5e:	02dd      	mov.n	a13, a2
400d1a60:	f98a81        	l32r	a8, 400d0088 <_image_irom_vaddr+0x68> (40007d54 <esp_rom_printf>)
400d1a63:	0008e0        	callx8	a8
400d1a66:	a21c      	movi.n	a2, 26
400d1a68:	001186        	j	400d1ab2 <rtc_clk_xtal_freq_estimate+0xca>
400d1a6b:	00          	.byte 00
400d1a6c:	f98481        	l32r	a8, 400d007c <_image_irom_vaddr+0x5c> (3ffb0004 <esp_log_default_level>)
400d1a6f:	0888      	l32i.n	a8, a8, 0
400d1a71:	3b28b6        	bltui	a8, 2, 400d1ab0 <rtc_clk_xtal_freq_estimate+0xc8>
400d1a74:	b05965        	call8	4008200c <esp_log_early_timestamp>
400d1a77:	0abd      	mov.n	a11, a10
400d1a79:	f9dcc1        	l32r	a12, 400d01ec <_image_irom_vaddr+0x1cc> (3f400b19 <CSWTCH$47+0x58>)
400d1a7c:	f9dea1        	l32r	a10, 400d01f4 <_image_irom_vaddr+0x1d4> (3f400b6c <CSWTCH$47+0xab>)
400d1a7f:	20d220        	or	a13, a2, a2
400d1a82:	f98181        	l32r	a8, 400d0088 <_image_irom_vaddr+0x68> (40007d54 <esp_rom_printf>)
400d1a85:	0008e0        	callx8	a8
400d1a88:	000906        	j	400d1ab0 <rtc_clk_xtal_freq_estimate+0xc8>
400d1a8b:	00          	.byte 00
400d1a8c:	f97c81        	l32r	a8, 400d007c <_image_irom_vaddr+0x5c> (3ffb0004 <esp_log_default_level>)
400d1a8f:	0888      	l32i.n	a8, a8, 0
400d1a91:	0428f6        	bgeui	a8, 2, 400d1a99 <rtc_clk_xtal_freq_estimate+0xb1>
400d1a94:	020c      	movi.n	a2, 0
400d1a96:	000606        	j	400d1ab2 <rtc_clk_xtal_freq_estimate+0xca>
400d1a99:	b05725        	call8	4008200c <esp_log_early_timestamp>
400d1a9c:	0abd      	mov.n	a11, a10
400d1a9e:	f9d3c1        	l32r	a12, 400d01ec <_image_irom_vaddr+0x1cc> (3f400b19 <CSWTCH$47+0x58>)
400d1aa1:	f9d5a1        	l32r	a10, 400d01f8 <_image_irom_vaddr+0x1d8> (3f400bb2 <CSWTCH$47+0xf1>)
400d1aa4:	02dd      	mov.n	a13, a2
400d1aa6:	f97881        	l32r	a8, 400d0088 <_image_irom_vaddr+0x68> (40007d54 <esp_rom_printf>)
400d1aa9:	0008e0        	callx8	a8
400d1aac:	fff906        	j	400d1a94 <rtc_clk_xtal_freq_estimate+0xac>
400d1aaf:	00          	.byte 00
400d1ab0:	822c      	movi.n	a2, 40
400d1ab2:	f01d      	retw.n

400d1ab4 <rtc_clk_init>:
400d1ab4:	00a136        	entry	a1, 80
400d1ab7:	096132        	s32i	a3, a1, 36
400d1aba:	f97e31        	l32r	a3, 400d00b4 <_image_irom_vaddr+0x94> (3ff48070 <RTCCNTL+0x70>)
400d1abd:	086122        	s32i	a2, a1, 32
400d1ac0:	0020c0        	memw
400d1ac3:	0023b2        	l32i	a11, a3, 0
400d1ac6:	942820        	extui	a2, a2, 8, 10
400d1ac9:	15bbb0        	extui	a11, a11, 27, 2
400d1acc:	041b66        	bnei	a11, 1, 400d1ad4 <rtc_clk_init+0x20>
400d1acf:	8a2c      	movi.n	a10, 40
400d1ad1:	ff77e5        	call8	400d1250 <rtc_clk_cpu_freq_to_xtal>
400d1ad4:	f97681        	l32r	a8, 400d00ac <_image_irom_vaddr+0x8c> (3ff4807c <RTCCNTL+0x7c>)
400d1ad7:	230132        	l8ui	a3, a1, 35
400d1ada:	0020c0        	memw
400d1add:	002842        	l32i	a4, a8, 0
400d1ae0:	f9c791        	l32r	a9, 400d01fc <_image_irom_vaddr+0x1dc> (ffc03fff <_rtc_bss_end+0xafc03fff>)
400d1ae3:	113320        	slli	a3, a3, 14
400d1ae6:	104490        	and	a4, a4, a9
400d1ae9:	203340        	or	a3, a3, a4
400d1aec:	f97241        	l32r	a4, 400d00b4 <_image_irom_vaddr+0x94> (3ff48070 <RTCCNTL+0x70>)
400d1aef:	0020c0        	memw
400d1af2:	006832        	s32i	a3, a8, 0
400d1af5:	0020c0        	memw
400d1af8:	002482        	l32i	a8, a4, 0
400d1afb:	240132        	l8ui	a3, a1, 36
400d1afe:	f9c091        	l32r	a9, 400d0200 <_image_irom_vaddr+0x1e0> (fe01ffff <_rtc_bss_end+0xae01ffff>)
400d1b01:	0133f0        	slli	a3, a3, 17
400d1b04:	108890        	and	a8, a8, a9
400d1b07:	203380        	or	a3, a3, a8
400d1b0a:	0020c0        	memw
400d1b0d:	0439      	s32i.n	a3, a4, 0
400d1b0f:	8138      	l32i.n	a3, a1, 32
400d1b11:	0020c0        	memw
400d1b14:	0488      	l32i.n	a8, a4, 0
400d1b16:	f9bb91        	l32r	a9, 400d0204 <_image_irom_vaddr+0x1e4> (ffff8fff <_rtc_bss_end+0xafff8fff>)
400d1b19:	253530        	extui	a3, a3, 21, 3
400d1b1c:	108890        	and	a8, a8, a9
400d1b1f:	113340        	slli	a3, a3, 12
400d1b22:	203380        	or	a3, a3, a8
400d1b25:	0020c0        	memw
400d1b28:	0439      	s32i.n	a3, a4, 0
400d1b2a:	f9b731        	l32r	a3, 400d0208 <_image_irom_vaddr+0x1e8> (6000e044 <_rtc_bss_end+0x1000e044>)
400d1b2d:	ffa382        	movi	a8, 0x3ff
400d1b30:	0020c0        	memw
400d1b33:	0348      	l32i.n	a4, a3, 0
400d1b35:	118880        	slli	a8, a8, 8
400d1b38:	204480        	or	a4, a4, a8
400d1b3b:	0020c0        	memw
400d1b3e:	0349      	s32i.n	a4, a3, 0
400d1b40:	0020c0        	memw
400d1b43:	0348      	l32i.n	a4, a3, 0
400d1b45:	f9b181        	l32r	a8, 400d020c <_image_irom_vaddr+0x1ec> (fffdbfff <_rtc_bss_end+0xaffdbfff>)
400d1b48:	104480        	and	a4, a4, a8
400d1b4b:	0020c0        	memw
400d1b4e:	0349      	s32i.n	a4, a3, 0
400d1b50:	f97131        	l32r	a3, 400d0114 <_image_irom_vaddr+0xf4> (3ff480b0 <RTCCNTL+0xb0>)
400d1b53:	200142        	l8ui	a4, a1, 32
400d1b56:	0020c0        	memw
400d1b59:	0338      	l32i.n	a3, a3, 0
400d1b5b:	041456        	bnez	a4, 400d1ba0 <rtc_clk_init+0xec>
400d1b5e:	f48030        	extui	a8, a3, 0, 16
400d1b61:	f54030        	extui	a4, a3, 16, 16
400d1b64:	109847        	bne	a8, a4, 400d1b78 <rtc_clk_init+0xc4>
400d1b67:	330b      	addi.n	a3, a3, -1
400d1b69:	d47c      	movi.n	a4, -3
400d1b6b:	093437        	bltu	a4, a3, 400d1b78 <rtc_clk_init+0xc4>
400d1b6e:	ff58a5        	call8	400d10f8 <rtc_clk_xtal_freq_get>
400d1b71:	0a3d      	mov.n	a3, a10
400d1b73:	001ac6        	j	400d1be2 <rtc_clk_init+0x12e>
400d1b76:	00          	.byte 00
400d1b77:	00          	.byte 00
400d1b78:	ffe6e5        	call8	400d19e8 <rtc_clk_xtal_freq_estimate>
400d1b7b:	203aa0        	or	a3, a10, a10
400d1b7e:	060a56        	bnez	a10, 400d1be2 <rtc_clk_init+0x12e>
400d1b81:	f93e31        	l32r	a3, 400d007c <_image_irom_vaddr+0x5c> (3ffb0004 <esp_log_default_level>)
400d1b84:	002332        	l32i	a3, a3, 0
400d1b87:	5523b6        	bltui	a3, 2, 400d1be0 <rtc_clk_init+0x12c>
400d1b8a:	b04825        	call8	4008200c <esp_log_early_timestamp>
400d1b8d:	20baa0        	or	a11, a10, a10
400d1b90:	f997c1        	l32r	a12, 400d01ec <_image_irom_vaddr+0x1cc> (3f400b19 <CSWTCH$47+0x58>)
400d1b93:	f99fa1        	l32r	a10, 400d0210 <_image_irom_vaddr+0x1f0> (3f400bdb <CSWTCH$47+0x11a>)
400d1b96:	f93c81        	l32r	a8, 400d0088 <_image_irom_vaddr+0x68> (40007d54 <esp_rom_printf>)
400d1b99:	0008e0        	callx8	a8
400d1b9c:	001006        	j	400d1be0 <rtc_clk_init+0x12c>
400d1b9f:	00          	.byte 00
400d1ba0:	f49030        	extui	a9, a3, 0, 16
400d1ba3:	f58030        	extui	a8, a3, 16, 16
400d1ba6:	0b9987        	bne	a9, a8, 400d1bb5 <rtc_clk_init+0x101>
400d1ba9:	330b      	addi.n	a3, a3, -1
400d1bab:	d87c      	movi.n	a8, -3
400d1bad:	043837        	bltu	a8, a3, 400d1bb5 <rtc_clk_init+0x101>
400d1bb0:	043d      	mov.n	a3, a4
400d1bb2:	000b06        	j	400d1be2 <rtc_clk_init+0x12e>
400d1bb5:	ffe325        	call8	400d19e8 <rtc_clk_xtal_freq_estimate>
400d1bb8:	203aa0        	or	a3, a10, a10
400d1bbb:	2314a7        	beq	a4, a10, 400d1be2 <rtc_clk_init+0x12e>
400d1bbe:	f92f81        	l32r	a8, 400d007c <_image_irom_vaddr+0x5c> (3ffb0004 <esp_log_default_level>)
400d1bc1:	002882        	l32i	a8, a8, 0
400d1bc4:	e828b6        	bltui	a8, 2, 400d1bb0 <rtc_clk_init+0xfc>
400d1bc7:	b04465        	call8	4008200c <esp_log_early_timestamp>
400d1bca:	0abd      	mov.n	a11, a10
400d1bcc:	f988c1        	l32r	a12, 400d01ec <_image_irom_vaddr+0x1cc> (3f400b19 <CSWTCH$47+0x58>)
400d1bcf:	f991a1        	l32r	a10, 400d0214 <_image_irom_vaddr+0x1f4> (3f400c15 <CSWTCH$47+0x154>)
400d1bd2:	03ed      	mov.n	a14, a3
400d1bd4:	04dd      	mov.n	a13, a4
400d1bd6:	f92c81        	l32r	a8, 400d0088 <_image_irom_vaddr+0x68> (40007d54 <esp_rom_printf>)
400d1bd9:	0008e0        	callx8	a8
400d1bdc:	fff406        	j	400d1bb0 <rtc_clk_init+0xfc>
400d1bdf:	00          	.byte 00
400d1be0:	a31c      	movi.n	a3, 26
400d1be2:	0a0c      	movi.n	a10, 0
400d1be4:	f92b81        	l32r	a8, 400d0090 <_image_irom_vaddr+0x70> (40009278 <esp_rom_uart_tx_wait_idle>)
400d1be7:	0008e0        	callx8	a8
400d1bea:	03ad      	mov.n	a10, a3
400d1bec:	ff61a5        	call8	400d1208 <rtc_clk_xtal_freq_update>
400d1bef:	f911a1        	l32r	a10, 400d0034 <_image_irom_vaddr+0x14> (f4240 <CONFIG_ESP_HEAP_MEM_POOL_REGION_1_SIZE+0xe8240>)
400d1bf2:	82a3a0        	mull	a10, a3, a10
400d1bf5:	ff63e5        	call8	400d1234 <rtc_clk_apb_freq_update>
400d1bf8:	10c1a2        	addi	a10, a1, 16
400d1bfb:	ff57e5        	call8	400d1178 <rtc_clk_cpu_freq_get_config>
400d1bfe:	01bd      	mov.n	a11, a1
400d1c00:	02ad      	mov.n	a10, a2
400d1c02:	072142        	l32i	a4, a1, 28
400d1c05:	ff51a5        	call8	400d1120 <rtc_clk_cpu_freq_mhz_to_config>
400d1c08:	eadc      	bnez.n	a10, 400d1c2a <rtc_clk_init+0x176>
400d1c0a:	f91c81        	l32r	a8, 400d007c <_image_irom_vaddr+0x5c> (3ffb0004 <esp_log_default_level>)
400d1c0d:	002882        	l32i	a8, a8, 0
400d1c10:	010816        	beqz	a8, 400d1c24 <rtc_clk_init+0x170>
400d1c13:	b03fa5        	call8	4008200c <esp_log_early_timestamp>
400d1c16:	0abd      	mov.n	a11, a10
400d1c18:	f975c1        	l32r	a12, 400d01ec <_image_irom_vaddr+0x1cc> (3f400b19 <CSWTCH$47+0x58>)
400d1c1b:	f97fa1        	l32r	a10, 400d0218 <_image_irom_vaddr+0x1f8> (3f400c6b <CSWTCH$47+0x1aa>)
400d1c1e:	f91a81        	l32r	a8, 400d0088 <_image_irom_vaddr+0x68> (40007d54 <esp_rom_printf>)
400d1c21:	0008e0        	callx8	a8
400d1c24:	201110        	or	a1, a1, a1
400d1c27:	004125        	call8	400d2038 <abort>
400d1c2a:	20a110        	or	a10, a1, a1
400d1c2d:	ff6965        	call8	400d12c4 <rtc_clk_cpu_freq_set_config>
400d1c30:	f93e81        	l32r	a8, 400d0128 <_image_irom_vaddr+0x108> (3ff66004 <TIMERG1+0x6004>)
400d1c33:	ffc332        	addi	a3, a3, -1
400d1c36:	0020c0        	memw
400d1c39:	0839      	s32i.n	a3, a8, 0
400d1c3b:	f97831        	l32r	a3, 400d021c <_image_irom_vaddr+0x1fc> (3ff66008 <TIMERG1+0x6008>)
400d1c3e:	f84c      	movi.n	a8, 79
400d1c40:	0020c0        	memw
400d1c43:	0389      	s32i.n	a8, a3, 0
400d1c45:	03eaa0        	rsr.ccount	a10
400d1c48:	a2b2a0        	muluh	a11, a2, a10
400d1c4b:	82a2a0        	mull	a10, a2, a10
400d1c4e:	04cd      	mov.n	a12, a4
400d1c50:	0d0c      	movi.n	a13, 0
400d1c52:	f91081        	l32r	a8, 400d0094 <_image_irom_vaddr+0x74> (4000cff8 <__udivdi3>)
400d1c55:	0008e0        	callx8	a8
400d1c58:	13eaa0        	wsr.ccount	a10
400d1c5b:	f97141        	l32r	a4, 400d0220 <_image_irom_vaddr+0x200> (fffc00ff <_rtc_bss_end+0xaffc00ff>)
400d1c5e:	113280        	slli	a3, a2, 8
400d1c61:	8128      	l32i.n	a2, a1, 32
400d1c63:	102240        	and	a2, a2, a4
400d1c66:	202230        	or	a2, a2, a3
400d1c69:	330c      	movi.n	a3, 3
400d1c6b:	0133d0        	slli	a3, a3, 19
400d1c6e:	140c      	movi.n	a4, 1
400d1c70:	8129      	s32i.n	a2, a1, 32
400d1c72:	103230        	and	a3, a2, a3
400d1c75:	0144d0        	slli	a4, a4, 19
400d1c78:	059347        	bne	a3, a4, 400d1c81 <rtc_clk_init+0x1cd>
400d1c7b:	01a0a2        	movi	a10, 1
400d1c7e:	ff1725        	call8	400d0df0 <rtc_clk_32k_enable>
400d1c81:	137227        	bbci	a2, 18, 400d1c98 <rtc_clk_init+0x1e4>
400d1c84:	ffaf22        	movi	a2, -1
400d1c87:	0122c0        	slli	a2, a2, 20
400d1c8a:	332a      	add.n	a3, a3, a2
400d1c8c:	01a0a2        	movi	a10, 1
400d1c8f:	00a0b2        	movi	a11, 0
400d1c92:	83ba30        	moveqz	a11, a10, a3
400d1c95:	ff1965        	call8	400d0e2c <rtc_clk_8m_enable>
400d1c98:	81a8      	l32i.n	a10, a1, 32
400d1c9a:	05a2a0        	extui	a10, a10, 18, 1
400d1c9d:	ff29a5        	call8	400d0f38 <rtc_clk_fast_freq_set>
400d1ca0:	81a8      	l32i.n	a10, a1, 32
400d1ca2:	15a3a0        	extui	a10, a10, 19, 2
400d1ca5:	ff23a5        	call8	400d0ee0 <rtc_clk_slow_freq_set>
400d1ca8:	f01d      	retw.n
	...

400d1cac <esp_timer_early_init>:
400d1cac:	004136        	entry	a1, 32
400d1caf:	0000a5        	call8	400d1cb8 <esp_timer_impl_early_init>
400d1cb2:	020c      	movi.n	a2, 0
400d1cb4:	f01d      	retw.n
	...

400d1cb8 <esp_timer_impl_early_init>:
400d1cb8:	004136        	entry	a1, 32
400d1cbb:	8a0c      	movi.n	a10, 8
400d1cbd:	0016a5        	call8	400d1e28 <periph_module_enable>
400d1cc0:	f95981        	l32r	a8, 400d0224 <_image_irom_vaddr+0x204> (3ff5f070 <TIMERG0+0x70>)
400d1cc3:	020c      	movi.n	a2, 0
400d1cc5:	f95891        	l32r	a9, 400d0228 <_image_irom_vaddr+0x208> (3ff5f08c <TIMERG0+0x8c>)
400d1cc8:	0020c0        	memw
400d1ccb:	0829      	s32i.n	a2, a8, 0
400d1ccd:	0020c0        	memw
400d1cd0:	0929      	s32i.n	a2, a9, 0
400d1cd2:	f95691        	l32r	a9, 400d022c <_image_irom_vaddr+0x20c> (3ff5f090 <TIMERG0+0x90>)
400d1cd5:	f956a1        	l32r	a10, 400d0230 <_image_irom_vaddr+0x210> (3ff5f084 <TIMERG0+0x84>)
400d1cd8:	0020c0        	memw
400d1cdb:	0929      	s32i.n	a2, a9, 0
400d1cdd:	f97c      	movi.n	a9, -1
400d1cdf:	0020c0        	memw
400d1ce2:	0a99      	s32i.n	a9, a10, 0
400d1ce4:	f954a1        	l32r	a10, 400d0234 <_image_irom_vaddr+0x214> (3ff5f088 <TIMERG0+0x88>)
400d1ce7:	8b0c      	movi.n	a11, 8
400d1ce9:	0020c0        	memw
400d1cec:	0a99      	s32i.n	a9, a10, 0
400d1cee:	f95291        	l32r	a9, 400d0238 <_image_irom_vaddr+0x218> (3ff5f094 <TIMERG0+0x94>)
400d1cf1:	1a0c      	movi.n	a10, 1
400d1cf3:	0020c0        	memw
400d1cf6:	09a9      	s32i.n	a10, a9, 0
400d1cf8:	f951a1        	l32r	a10, 400d023c <_image_irom_vaddr+0x21c> (3ff5f0a4 <TIMERG0+0xa4>)
400d1cfb:	0020c0        	memw
400d1cfe:	0a98      	l32i.n	a9, a10, 0
400d1d00:	2099b0        	or	a9, a9, a11
400d1d03:	0020c0        	memw
400d1d06:	0a99      	s32i.n	a9, a10, 0
400d1d08:	0020c0        	memw
400d1d0b:	0898      	l32i.n	a9, a8, 0
400d1d0d:	f94ca1        	l32r	a10, 400d0240 <_image_irom_vaddr+0x220> (e0001fff <_rtc_bss_end+0x90001fff>)
400d1d10:	1099a0        	and	a9, a9, a10
400d1d13:	5a0c      	movi.n	a10, 5
400d1d15:	11aa00        	slli	a10, a10, 16
400d1d18:	2099a0        	or	a9, a9, a10
400d1d1b:	0020c0        	memw
400d1d1e:	0899      	s32i.n	a9, a8, 0
400d1d20:	0020c0        	memw
400d1d23:	0898      	l32i.n	a9, a8, 0
400d1d25:	f947a1        	l32r	a10, 400d0244 <_image_irom_vaddr+0x224> (c0000800 <_rtc_bss_end+0x70000800>)
400d1d28:	2099a0        	or	a9, a9, a10
400d1d2b:	0020c0        	memw
400d1d2e:	0899      	s32i.n	a9, a8, 0
400d1d30:	f01d      	retw.n
	...

400d1d34 <periph_ll_get_rst_en_mask>:
400d1d34:	004136        	entry	a1, 32
400d1d37:	082c      	movi.n	a8, 32
400d1d39:	02b827        	bgeu	a8, a2, 400d1d3f <periph_ll_get_rst_en_mask+0xb>
400d1d3c:	002b86        	j	400d1dee <periph_ll_get_rst_en_mask+0xba>
400d1d3f:	f94281        	l32r	a8, 400d0248 <_image_irom_vaddr+0x228> (3f40057c <rtc_io_num_map+0xa0>)
400d1d42:	a02280        	addx4	a2, a2, a8
400d1d45:	0228      	l32i.n	a2, a2, 0
400d1d47:	0002a0        	jx	a2
400d1d4a:	120c      	movi.n	a2, 1
400d1d4c:	112250        	slli	a2, a2, 11
400d1d4f:	002886        	j	400d1df5 <periph_ll_get_rst_en_mask+0xc1>
400d1d52:	022c      	movi.n	a2, 32
400d1d54:	002746        	j	400d1df5 <periph_ll_get_rst_en_mask+0xc1>
400d1d57:	420c      	movi.n	a2, 4
400d1d59:	002606        	j	400d1df5 <periph_ll_get_rst_en_mask+0xc1>
400d1d5c:	120c      	movi.n	a2, 1
400d1d5e:	012290        	slli	a2, a2, 23
400d1d61:	002406        	j	400d1df5 <periph_ll_get_rst_en_mask+0xc1>
400d1d64:	80a022        	movi	a2, 128
400d1d67:	002286        	j	400d1df5 <periph_ll_get_rst_en_mask+0xc1>
400d1d6a:	120c      	movi.n	a2, 1
400d1d6c:	0122e0        	slli	a2, a2, 18
400d1d6f:	002086        	j	400d1df5 <periph_ll_get_rst_en_mask+0xc1>
400d1d72:	021c      	movi.n	a2, 16
400d1d74:	001f46        	j	400d1df5 <periph_ll_get_rst_en_mask+0xc1>
400d1d77:	120c      	movi.n	a2, 1
400d1d79:	0122b0        	slli	a2, a2, 21
400d1d7c:	001d46        	j	400d1df5 <periph_ll_get_rst_en_mask+0xc1>
400d1d7f:	120c      	movi.n	a2, 1
400d1d81:	112230        	slli	a2, a2, 13
400d1d84:	001b46        	j	400d1df5 <periph_ll_get_rst_en_mask+0xc1>
400d1d87:	120c      	movi.n	a2, 1
400d1d89:	112210        	slli	a2, a2, 15
400d1d8c:	001946        	j	400d1df5 <periph_ll_get_rst_en_mask+0xc1>
400d1d8f:	120c      	movi.n	a2, 1
400d1d91:	0122f0        	slli	a2, a2, 17
400d1d94:	001746        	j	400d1df5 <periph_ll_get_rst_en_mask+0xc1>
400d1d97:	120c      	movi.n	a2, 1
400d1d99:	0122c0        	slli	a2, a2, 20
400d1d9c:	001546        	j	400d1df5 <periph_ll_get_rst_en_mask+0xc1>
400d1d9f:	00a122        	movi	a2, 0x100
400d1da2:	0013c6        	j	400d1df5 <periph_ll_get_rst_en_mask+0xc1>
400d1da5:	120c      	movi.n	a2, 1
400d1da7:	112240        	slli	a2, a2, 12
400d1daa:	0011c6        	j	400d1df5 <periph_ll_get_rst_en_mask+0xc1>
400d1dad:	00a222        	movi	a2, 0x200
400d1db0:	001046        	j	400d1df5 <periph_ll_get_rst_en_mask+0xc1>
400d1db3:	00a422        	movi	a2, 0x400
400d1db6:	000ec6        	j	400d1df5 <periph_ll_get_rst_en_mask+0xc1>
400d1db9:	024c      	movi.n	a2, 64
400d1dbb:	000d86        	j	400d1df5 <periph_ll_get_rst_en_mask+0xc1>
400d1dbe:	120c      	movi.n	a2, 1
400d1dc0:	112200        	slli	a2, a2, 16
400d1dc3:	000b86        	j	400d1df5 <periph_ll_get_rst_en_mask+0xc1>
400d1dc6:	120c      	movi.n	a2, 1
400d1dc8:	0122a0        	slli	a2, a2, 22
400d1dcb:	000986        	j	400d1df5 <periph_ll_get_rst_en_mask+0xc1>
400d1dce:	120c      	movi.n	a2, 1
400d1dd0:	0122d0        	slli	a2, a2, 19
400d1dd3:	000786        	j	400d1df5 <periph_ll_get_rst_en_mask+0xc1>
400d1dd6:	120c      	movi.n	a2, 1
400d1dd8:	981c      	movi.n	a8, 25
400d1dda:	0000c6        	j	400d1de1 <periph_ll_get_rst_en_mask+0xad>
400d1ddd:	220c      	movi.n	a2, 2
400d1ddf:	a80c      	movi.n	a8, 10
400d1de1:	932830        	movnez	a2, a8, a3
400d1de4:	000346        	j	400d1df5 <periph_ll_get_rst_en_mask+0xc1>
400d1de7:	420c      	movi.n	a2, 4
400d1de9:	481c      	movi.n	a8, 20
400d1deb:	fffc86        	j	400d1de1 <periph_ll_get_rst_en_mask+0xad>
400d1dee:	020c      	movi.n	a2, 0
400d1df0:	000046        	j	400d1df5 <periph_ll_get_rst_en_mask+0xc1>
400d1df3:	220c      	movi.n	a2, 2
400d1df5:	f01d      	retw.n
	...

400d1df8 <periph_ll_get_rst_en_reg>:
400d1df8:	004136        	entry	a1, 32
400d1dfb:	028d      	mov.n	a8, a2
400d1dfd:	d21c      	movi.n	a2, 29
400d1dff:	163287        	bltu	a2, a8, 400d1e19 <periph_ll_get_rst_en_reg+0x21>
400d1e02:	691c      	movi.n	a9, 22
400d1e04:	f91321        	l32r	a2, 400d0250 <_image_irom_vaddr+0x230> (3ff000d0 <__device_deps_end+0xaff1cc>)
400d1e07:	1a3987        	bltu	a9, a8, 400d1e25 <periph_ll_get_rst_en_reg+0x2d>
400d1e0a:	ecc882        	addi	a8, a8, -20
400d1e0d:	f91121        	l32r	a2, 400d0254 <_image_irom_vaddr+0x234> (3ff000c4 <__device_deps_end+0xaff1c0>)
400d1e10:	1128f6        	bgeui	a8, 2, 400d1e25 <periph_ll_get_rst_en_reg+0x2d>
400d1e13:	f90f21        	l32r	a2, 400d0250 <_image_irom_vaddr+0x230> (3ff000d0 <__device_deps_end+0xaff1cc>)
400d1e16:	0002c6        	j	400d1e25 <periph_ll_get_rst_en_reg+0x2d>
400d1e19:	e2c882        	addi	a8, a8, -30
400d1e1c:	f90e21        	l32r	a2, 400d0254 <_image_irom_vaddr+0x234> (3ff000c4 <__device_deps_end+0xaff1c0>)
400d1e1f:	0238f6        	bgeui	a8, 3, 400d1e25 <periph_ll_get_rst_en_reg+0x2d>
400d1e22:	f90a21        	l32r	a2, 400d024c <_image_irom_vaddr+0x22c> (3ff00020 <__device_deps_end+0xaff11c>)
400d1e25:	f01d      	retw.n
	...

400d1e28 <periph_module_enable>:
400d1e28:	004136        	entry	a1, 32
400d1e2b:	006350        	rsil	a5, 3
400d1e2e:	f90d31        	l32r	a3, 400d0264 <_image_irom_vaddr+0x244> (3ffb1470 <periph_spinlock>)
400d1e31:	0359      	s32i.n	a5, a3, 0
400d1e33:	f90d31        	l32r	a3, 400d0268 <_image_irom_vaddr+0x248> (3ffb15d8 <ref_counts>)
400d1e36:	432a      	add.n	a4, a3, a2
400d1e38:	000442        	l8ui	a4, a4, 0
400d1e3b:	069456        	bnez	a4, 400d1ea8 <periph_module_enable+0x80>
400d1e3e:	d61c      	movi.n	a6, 29
400d1e40:	103627        	bltu	a6, a2, 400d1e54 <periph_module_enable+0x2c>
400d1e43:	661c      	movi.n	a6, 22
400d1e45:	243627        	bltu	a6, a2, 400d1e6d <periph_module_enable+0x45>
400d1e48:	ecc262        	addi	a6, a2, -20
400d1e4b:	f90381        	l32r	a8, 400d0258 <_image_irom_vaddr+0x238> (3ff000c0 <__device_deps_end+0xaff1bc>)
400d1e4e:	1e26f6        	bgeui	a6, 2, 400d1e70 <periph_module_enable+0x48>
400d1e51:	000606        	j	400d1e6d <periph_module_enable+0x45>
400d1e54:	e2c262        	addi	a6, a2, -30
400d1e57:	f90181        	l32r	a8, 400d025c <_image_irom_vaddr+0x23c> (3ff0001c <__device_deps_end+0xaff118>)
400d1e5a:	1236b6        	bltui	a6, 3, 400d1e70 <periph_module_enable+0x48>
400d1e5d:	f8fe81        	l32r	a8, 400d0258 <_image_irom_vaddr+0x238> (3ff000c0 <__device_deps_end+0xaff1bc>)
400d1e60:	046d      	mov.n	a6, a4
400d1e62:	0020c0        	memw
400d1e65:	0898      	l32i.n	a9, a8, 0
400d1e67:	000506        	j	400d1e7f <periph_module_enable+0x57>
400d1e6a:	00          	.byte 00
400d1e6b:	00          	.byte 00
400d1e6c:	00          	.byte 00
400d1e6d:	f8fc81        	l32r	a8, 400d0260 <_image_irom_vaddr+0x240> (3ff000cc <__device_deps_end+0xaff1c8>)
400d1e70:	f8ffa1        	l32r	a10, 400d026c <_image_irom_vaddr+0x24c> (3f400600 <CSWTCH$6>)
400d1e73:	0020c0        	memw
400d1e76:	002892        	l32i	a9, a8, 0
400d1e79:	a0a2a0        	addx4	a10, a2, a10
400d1e7c:	002a62        	l32i	a6, a10, 0
400d1e7f:	209960        	or	a9, a9, a6
400d1e82:	0020c0        	memw
400d1e85:	0899      	s32i.n	a9, a8, 0
400d1e87:	02ad      	mov.n	a10, a2
400d1e89:	fff6e5        	call8	400d1df8 <periph_ll_get_rst_en_reg>
400d1e8c:	0020c0        	memw
400d1e8f:	0a78      	l32i.n	a7, a10, 0
400d1e91:	0a6d      	mov.n	a6, a10
400d1e93:	1b0c      	movi.n	a11, 1
400d1e95:	02ad      	mov.n	a10, a2
400d1e97:	ffe9e5        	call8	400d1d34 <periph_ll_get_rst_en_mask>
400d1e9a:	f87c      	movi.n	a8, -1
400d1e9c:	30a8a0        	xor	a10, a8, a10
400d1e9f:	10aa70        	and	a10, a10, a7
400d1ea2:	0020c0        	memw
400d1ea5:	0066a2        	s32i	a10, a6, 0
400d1ea8:	332a      	add.n	a3, a3, a2
400d1eaa:	441b      	addi.n	a4, a4, 1
400d1eac:	004342        	s8i	a4, a3, 0
400d1eaf:	13e650        	wsr.ps	a5
400d1eb2:	002010        	rsync
400d1eb5:	f01d      	retw.n
	...

400d1eb8 <periph_module_disable>:
400d1eb8:	004136        	entry	a1, 32
400d1ebb:	006330        	rsil	a3, 3
400d1ebe:	f8ea81        	l32r	a8, 400d0268 <_image_irom_vaddr+0x248> (3ffb15d8 <ref_counts>)
400d1ec1:	f8e841        	l32r	a4, 400d0264 <_image_irom_vaddr+0x244> (3ffb1470 <periph_spinlock>)
400d1ec4:	882a      	add.n	a8, a8, a2
400d1ec6:	000892        	l8ui	a9, a8, 0
400d1ec9:	0439      	s32i.n	a3, a4, 0
400d1ecb:	990b      	addi.n	a9, a9, -1
400d1ecd:	749090        	extui	a9, a9, 0, 8
400d1ed0:	004892        	s8i	a9, a8, 0
400d1ed3:	061956        	bnez	a9, 400d1f38 <periph_module_disable+0x80>
400d1ed6:	d41c      	movi.n	a4, 29
400d1ed8:	103427        	bltu	a4, a2, 400d1eec <periph_module_disable+0x34>
400d1edb:	641c      	movi.n	a4, 22
400d1edd:	1f3427        	bltu	a4, a2, 400d1f00 <periph_module_disable+0x48>
400d1ee0:	ecc242        	addi	a4, a2, -20
400d1ee3:	f8dd81        	l32r	a8, 400d0258 <_image_irom_vaddr+0x238> (3ff000c0 <__device_deps_end+0xaff1bc>)
400d1ee6:	1924f6        	bgeui	a4, 2, 400d1f03 <periph_module_disable+0x4b>
400d1ee9:	0004c6        	j	400d1f00 <periph_module_disable+0x48>
400d1eec:	e2c242        	addi	a4, a2, -30
400d1eef:	f8db81        	l32r	a8, 400d025c <_image_irom_vaddr+0x23c> (3ff0001c <__device_deps_end+0xaff118>)
400d1ef2:	0d34b6        	bltui	a4, 3, 400d1f03 <periph_module_disable+0x4b>
400d1ef5:	f8d881        	l32r	a8, 400d0258 <_image_irom_vaddr+0x238> (3ff000c0 <__device_deps_end+0xaff1bc>)
400d1ef8:	0020c0        	memw
400d1efb:	08b8      	l32i.n	a11, a8, 0
400d1efd:	0003c6        	j	400d1f10 <periph_module_disable+0x58>
400d1f00:	f8d881        	l32r	a8, 400d0260 <_image_irom_vaddr+0x240> (3ff000cc <__device_deps_end+0xaff1c8>)
400d1f03:	f8da41        	l32r	a4, 400d026c <_image_irom_vaddr+0x24c> (3f400600 <CSWTCH$6>)
400d1f06:	0020c0        	memw
400d1f09:	08b8      	l32i.n	a11, a8, 0
400d1f0b:	a04240        	addx4	a4, a2, a4
400d1f0e:	0498      	l32i.n	a9, a4, 0
400d1f10:	fa7c      	movi.n	a10, -1
400d1f12:	309a90        	xor	a9, a10, a9
400d1f15:	1099b0        	and	a9, a9, a11
400d1f18:	0020c0        	memw
400d1f1b:	0899      	s32i.n	a9, a8, 0
400d1f1d:	02ad      	mov.n	a10, a2
400d1f1f:	ffeda5        	call8	400d1df8 <periph_ll_get_rst_en_reg>
400d1f22:	0020c0        	memw
400d1f25:	0a48      	l32i.n	a4, a10, 0
400d1f27:	0a5d      	mov.n	a5, a10
400d1f29:	0b0c      	movi.n	a11, 0
400d1f2b:	02ad      	mov.n	a10, a2
400d1f2d:	ffe065        	call8	400d1d34 <periph_ll_get_rst_en_mask>
400d1f30:	20a4a0        	or	a10, a4, a10
400d1f33:	0020c0        	memw
400d1f36:	05a9      	s32i.n	a10, a5, 0
400d1f38:	13e630        	wsr.ps	a3
400d1f3b:	002010        	rsync
400d1f3e:	f01d      	retw.n

400d1f40 <wdt_hal_write_protect_disable>:
400d1f40:	004136        	entry	a1, 32
400d1f43:	1288      	l32i.n	a8, a2, 4
400d1f45:	0228      	l32i.n	a2, a2, 0
400d1f47:	f8ca91        	l32r	a9, 400d0270 <_image_irom_vaddr+0x250> (50d83aa1 <_rtc_bss_end+0xd83aa1>)
400d1f4a:	72cc      	bnez.n	a2, 400d1f55 <wdt_hal_write_protect_disable+0x15>
400d1f4c:	0020c0        	memw
400d1f4f:	296892        	s32i	a9, a8, 164
400d1f52:	000146        	j	400d1f5b <wdt_hal_write_protect_disable+0x1b>
400d1f55:	0020c0        	memw
400d1f58:	196892        	s32i	a9, a8, 100
400d1f5b:	f01d      	retw.n
400d1f5d:	000000        	ill

400d1f60 <wdt_hal_disable>:
400d1f60:	004136        	entry	a1, 32
400d1f63:	1288      	l32i.n	a8, a2, 4
400d1f65:	0228      	l32i.n	a2, a2, 0
400d1f67:	f83ca1        	l32r	a10, 400d0058 <_image_irom_vaddr+0x38> (7fffffff <_rtc_bss_end+0x2fffffff>)
400d1f6a:	22dc      	bnez.n	a2, 400d1f80 <wdt_hal_disable+0x20>
400d1f6c:	0020c0        	memw
400d1f6f:	232892        	l32i	a9, a8, 140
400d1f72:	1099a0        	and	a9, a9, a10
400d1f75:	0020c0        	memw
400d1f78:	236892        	s32i	a9, a8, 140
400d1f7b:	000406        	j	400d1f8f <wdt_hal_disable+0x2f>
400d1f7e:	00          	.byte 00
400d1f7f:	00          	.byte 00
400d1f80:	0020c0        	memw
400d1f83:	122892        	l32i	a9, a8, 72
400d1f86:	1099a0        	and	a9, a9, a10
400d1f89:	0020c0        	memw
400d1f8c:	126892        	s32i	a9, a8, 72
400d1f8f:	f01d      	retw.n
400d1f91:	000000        	ill

400d1f94 <interrupt_controller_hal_desc_type>:
400d1f94:	004136        	entry	a1, 32
400d1f97:	0003e5        	call8	400d1fd4 <interrupt_controller_hal_desc_table>
400d1f9a:	1122c0        	slli	a2, a2, 4
400d1f9d:	802a20        	add	a2, a10, a2
400d1fa0:	012222        	l32i	a2, a2, 4
400d1fa3:	000090        	retw
	...

400d1fa8 <interrupt_controller_hal_desc_level>:
400d1fa8:	004136        	entry	a1, 32
400d1fab:	0002a5        	call8	400d1fd4 <interrupt_controller_hal_desc_table>
400d1fae:	1122c0        	slli	a2, a2, 4
400d1fb1:	802a20        	add	a2, a10, a2
400d1fb4:	002222        	l32i	a2, a2, 0
400d1fb7:	000090        	retw
	...

400d1fbc <interrupt_controller_hal_desc_flags>:
400d1fbc:	004136        	entry	a1, 32
400d1fbf:	000165        	call8	400d1fd4 <interrupt_controller_hal_desc_table>
400d1fc2:	1122c0        	slli	a2, a2, 4
400d1fc5:	802a20        	add	a2, a10, a2
400d1fc8:	a03320        	addx4	a3, a3, a2
400d1fcb:	022322        	l32i	a2, a3, 8
400d1fce:	000090        	retw
400d1fd1:	000000        	ill

400d1fd4 <interrupt_controller_hal_desc_table>:
400d1fd4:	004136        	entry	a1, 32
400d1fd7:	f8a721        	l32r	a2, 400d0274 <_image_irom_vaddr+0x254> (3f400684 <interrupt_descriptor_table>)
400d1fda:	f01d      	retw.n

400d1fdc <z_esp_aligned_alloc$constprop$0>:
400d1fdc:	004136        	entry	a1, 32
400d1fdf:	c24b      	addi.n	a12, a2, 4
400d1fe1:	04bc27        	bgeu	a12, a2, 400d1fe9 <z_esp_aligned_alloc$constprop$0+0xd>
400d1fe4:	020c      	movi.n	a2, 0
400d1fe6:	000546        	j	400d1fff <z_esp_aligned_alloc$constprop$0+0x23>
400d1fe9:	f8a321        	l32r	a2, 400d0278 <_image_irom_vaddr+0x258> (3ffb0290 <_internal_heap_1>)
400d1fec:	0e0c      	movi.n	a14, 0
400d1fee:	0efd      	mov.n	a15, a14
400d1ff0:	4b0c      	movi.n	a11, 4
400d1ff2:	20a220        	or	a10, a2, a2
400d1ff5:	af2225        	call8	40081218 <k_heap_aligned_alloc>
400d1ff8:	fe8a16        	beqz	a10, 400d1fe4 <z_esp_aligned_alloc$constprop$0+0x8>
400d1ffb:	0a29      	s32i.n	a2, a10, 0
400d1ffd:	2a4b      	addi.n	a2, a10, 4
400d1fff:	f01d      	retw.n
400d2001:	000000        	ill

400d2004 <__wrap_k_malloc>:
400d2004:	004136        	entry	a1, 32
400d2007:	20b220        	or	a11, a2, a2
400d200a:	04a0a2        	movi	a10, 4
400d200d:	afe4a5        	call8	40081e58 <k_aligned_alloc>
400d2010:	004a56        	bnez	a10, 400d2018 <__wrap_k_malloc+0x14>
400d2013:	02ad      	mov.n	a10, a2
400d2015:	fffc65        	call8	400d1fdc <z_esp_aligned_alloc$constprop$0>
400d2018:	0a2d      	mov.n	a2, a10
400d201a:	f01d      	retw.n

400d201c <arch_irq_connect_dynamic>:
400d201c:	004136        	entry	a1, 32
400d201f:	f89781        	l32r	a8, 400d027c <_image_irom_vaddr+0x25c> (3ffb0184 <_sw_isr_table>)
400d2022:	b08280        	addx8	a8, a2, a8
400d2025:	0859      	s32i.n	a5, a8, 0
400d2027:	1849      	s32i.n	a4, a8, 4
400d2029:	f01d      	retw.n
	...

400d202c <__stdout_hook_install>:
400d202c:	004136        	entry	a1, 32
400d202f:	f89481        	l32r	a8, 400d0280 <_image_irom_vaddr+0x260> (3ffb0008 <_stdout_hook>)
400d2032:	0829      	s32i.n	a2, a8, 0
400d2034:	f01d      	retw.n
	...

400d2038 <abort>:
400d2038:	004136        	entry	a1, 32
400d203b:	f892a1        	l32r	a10, 400d0284 <_image_irom_vaddr+0x264> (3f400c9d <CSWTCH$47+0x1dc>)
400d203e:	b0b725        	call8	40082bb0 <printk>
400d2041:	4a0c      	movi.n	a10, 4
400d2043:	ae9165        	call8	40080958 <xtensa_arch_except>
	...

400d2048 <esp_intr_lock>:
400d2048:	004136        	entry	a1, 32
400d204b:	006390        	rsil	a9, 3
400d204e:	f88e81        	l32r	a8, 400d0288 <_image_irom_vaddr+0x268> (3ffb1584 <esp_intc_csec>)
400d2051:	0899      	s32i.n	a9, a8, 0
400d2053:	f01d      	retw.n
400d2055:	000000        	ill

400d2058 <esp_intr_unlock>:
400d2058:	004136        	entry	a1, 32
400d205b:	f88b81        	l32r	a8, 400d0288 <_image_irom_vaddr+0x268> (3ffb1584 <esp_intc_csec>)
400d205e:	0888      	l32i.n	a8, a8, 0
400d2060:	13e680        	wsr.ps	a8
400d2063:	002010        	rsync
400d2066:	f01d      	retw.n

400d2068 <find_desc_for_int>:
400d2068:	004136        	entry	a1, 32
400d206b:	f88881        	l32r	a8, 400d028c <_image_irom_vaddr+0x26c> (3ffb1480 <vector_desc_head>)
400d206e:	0888      	l32i.n	a8, a8, 0
400d2070:	000406        	j	400d2084 <find_desc_for_int+0x1c>
400d2073:	00          	.byte 00
400d2074:	0898      	l32i.n	a9, a8, 0
400d2076:	05a090        	extui	a10, a9, 16, 1
400d2079:	059a37        	bne	a10, a3, 400d2082 <find_desc_for_int+0x1a>
400d207c:	459190        	extui	a9, a9, 17, 5
400d207f:	041927        	beq	a9, a2, 400d2087 <find_desc_for_int+0x1f>
400d2082:	2888      	l32i.n	a8, a8, 8
400d2084:	fec856        	bnez	a8, 400d2074 <find_desc_for_int+0xc>
400d2087:	082d      	mov.n	a2, a8
400d2089:	f01d      	retw.n
	...

400d208c <default_intr_handler>:
400d208c:	004136        	entry	a1, 32
400d208f:	02bd      	mov.n	a11, a2
400d2091:	03ebc0        	rsr.prid	a12
400d2094:	04cdc0        	extui	a12, a12, 13, 1
400d2097:	f87ea1        	l32r	a10, 400d0290 <_image_irom_vaddr+0x270> (3f400ca6 <CSWTCH$47+0x1e5>)
400d209a:	b0b165        	call8	40082bb0 <printk>
400d209d:	f01d      	retw.n
	...

400d20a0 <is_vect_desc_usable>:
400d20a0:	004136        	entry	a1, 32
400d20a3:	002262        	l32i	a6, a2, 0
400d20a6:	04bd      	mov.n	a11, a4
400d20a8:	456160        	extui	a6, a6, 17, 5
400d20ab:	06ad      	mov.n	a10, a6
400d20ad:	027d      	mov.n	a7, a2
400d20af:	fff0e5        	call8	400d1fbc <interrupt_controller_hal_desc_flags>
400d20b2:	020c      	movi.n	a2, 0
400d20b4:	029d      	mov.n	a9, a2
400d20b6:	761a26        	beqi	a10, 1, 400d2130 <is_vect_desc_usable+0x90>
400d20b9:	180c      	movi.n	a8, 1
400d20bb:	02bd      	mov.n	a11, a2
400d20bd:	fecaa2        	addi	a10, a10, -2
400d20c0:	558a      	add.n	a5, a5, a8
400d20c2:	83b8a0        	moveqz	a11, a8, a10
400d20c5:	938250        	movnez	a8, a2, a5
400d20c8:	102b80        	and	a2, a11, a8
400d20cb:	5f9297        	bne	a2, a9, 400d212e <is_vect_desc_usable+0x8e>
400d20ce:	20a660        	or	a10, a6, a6
400d20d1:	ffed65        	call8	400d1fa8 <interrupt_controller_hal_desc_level>
400d20d4:	5853a7        	bbc	a3, a10, 400d2130 <is_vect_desc_usable+0x90>
400d20d7:	06ad      	mov.n	a10, a6
400d20d9:	ffeba5        	call8	400d1f94 <interrupt_controller_hal_desc_type>
400d20dc:	056397        	bbci	a3, 9, 400d20e5 <is_vect_desc_usable+0x45>
400d20df:	5acc      	bnez.n	a10, 400d20e8 <is_vect_desc_usable+0x48>
400d20e1:	0012c6        	j	400d2130 <is_vect_desc_usable+0x90>
400d20e4:	00          	.byte 00
400d20e5:	471a26        	beqi	a10, 1, 400d2130 <is_vect_desc_usable+0x90>
400d20e8:	001792        	l16ui	a9, a7, 0
400d20eb:	980c      	movi.n	a8, 9
400d20ed:	237980        	sext	a7, a9, 15
400d20f0:	108780        	and	a8, a7, a8
400d20f3:	238880        	sext	a8, a8, 15
400d20f6:	68fc      	bnez.n	a8, 400d2130 <is_vect_desc_usable+0x90>
400d20f8:	450c      	movi.n	a5, 4
400d20fa:	107750        	and	a7, a7, a5
400d20fd:	237780        	sext	a7, a7, 15
400d2100:	279c      	beqz.n	a7, 400d2116 <is_vect_desc_usable+0x76>
400d2102:	2a6387        	bbci	a3, 8, 400d2130 <is_vect_desc_usable+0x90>
400d2105:	043a30        	extui	a3, a3, 10, 1
400d2108:	049190        	extui	a9, a9, 1, 1
400d210b:	c03390        	sub	a3, a3, a9
400d210e:	120c      	movi.n	a2, 1
400d2110:	932830        	movnez	a2, a8, a3
400d2113:	000646        	j	400d2130 <is_vect_desc_usable+0x90>
400d2116:	f85f21        	l32r	a2, 400d0294 <_image_irom_vaddr+0x274> (3ffb1484 <intr_alloc_table>)
400d2119:	664a      	add.n	a6, a6, a4
400d211b:	b06620        	addx8	a6, a6, a2
400d211e:	0638      	l32i.n	a3, a6, 0
400d2120:	f85e21        	l32r	a2, 400d0298 <_image_irom_vaddr+0x278> (400d208c <default_intr_handler>)
400d2123:	c03320        	sub	a3, a3, a2
400d2126:	120c      	movi.n	a2, 1
400d2128:	932730        	movnez	a2, a7, a3
400d212b:	000046        	j	400d2130 <is_vect_desc_usable+0x90>
400d212e:	092d      	mov.n	a2, a9
400d2130:	f01d      	retw.n
	...

400d2134 <get_desc_for_int>:
400d2134:	004136        	entry	a1, 32
400d2137:	20b330        	or	a11, a3, a3
400d213a:	20a220        	or	a10, a2, a2
400d213d:	fff2a5        	call8	400d2068 <find_desc_for_int>
400d2140:	0a5d      	mov.n	a5, a10
400d2142:	0a4d      	mov.n	a4, a10
400d2144:	075a56        	bnez	a10, 400d21bd <get_desc_for_int+0x89>
400d2147:	ca0c      	movi.n	a10, 12
400d2149:	ffeba5        	call8	400d2004 <__wrap_k_malloc>
400d214c:	0a4d      	mov.n	a4, a10
400d214e:	06ba16        	beqz	a10, 400d21bd <get_desc_for_int+0x89>
400d2151:	cc0c      	movi.n	a12, 12
400d2153:	05bd      	mov.n	a11, a5
400d2155:	b0b265        	call8	40082c7c <memset>
400d2158:	0488      	l32i.n	a8, a4, 0
400d215a:	f850a1        	l32r	a10, 400d029c <_image_irom_vaddr+0x27c> (ffc1ffff <_rtc_bss_end+0xafc1ffff>)
400d215d:	449020        	extui	a9, a2, 0, 5
400d2160:	0129f0        	slli	a2, a9, 17
400d2163:	1088a0        	and	a8, a8, a10
400d2166:	208820        	or	a8, a8, a2
400d2169:	f7b921        	l32r	a2, 400d0050 <_image_irom_vaddr+0x30> (fffeffff <_rtc_bss_end+0xaffeffff>)
400d216c:	04a030        	extui	a10, a3, 0, 1
400d216f:	113a00        	slli	a3, a10, 16
400d2172:	108820        	and	a8, a8, a2
400d2175:	208830        	or	a8, a8, a3
400d2178:	f845b1        	l32r	a11, 400d028c <_image_irom_vaddr+0x26c> (3ffb1480 <vector_desc_head>)
400d217b:	0489      	s32i.n	a8, a4, 0
400d217d:	0bc8      	l32i.n	a12, a11, 0
400d217f:	0c8d      	mov.n	a8, a12
400d2181:	000646        	j	400d219e <get_desc_for_int+0x6a>
400d2184:	0828      	l32i.n	a2, a8, 0
400d2186:	053020        	extui	a3, a2, 16, 1
400d2189:	143a37        	bltu	a10, a3, 400d21a1 <get_desc_for_int+0x6d>
400d218c:	0438      	l32i.n	a3, a4, 0
400d218e:	303230        	xor	a3, a2, a3
400d2191:	05f307        	bbsi	a3, 16, 400d219a <get_desc_for_int+0x66>
400d2194:	452120        	extui	a2, a2, 17, 5
400d2197:	06b297        	bgeu	a2, a9, 400d21a1 <get_desc_for_int+0x6d>
400d219a:	085d      	mov.n	a5, a8
400d219c:	2888      	l32i.n	a8, a8, 8
400d219e:	fe2856        	bnez	a8, 400d2184 <get_desc_for_int+0x50>
400d21a1:	120c      	movi.n	a2, 1
400d21a3:	030c      	movi.n	a3, 0
400d21a5:	833250        	moveqz	a3, a2, a5
400d21a8:	749030        	extui	a9, a3, 0, 8
400d21ab:	33cc      	bnez.n	a3, 400d21b2 <get_desc_for_int+0x7e>
400d21ad:	9329c0        	movnez	a2, a9, a12
400d21b0:	528c      	beqz.n	a2, 400d21b9 <get_desc_for_int+0x85>
400d21b2:	2489      	s32i.n	a8, a4, 8
400d21b4:	0b49      	s32i.n	a4, a11, 0
400d21b6:	0000c6        	j	400d21bd <get_desc_for_int+0x89>
400d21b9:	2549      	s32i.n	a4, a5, 8
400d21bb:	2489      	s32i.n	a8, a4, 8
400d21bd:	042d      	mov.n	a2, a4
400d21bf:	f01d      	retw.n
400d21c1:	000000        	ill

400d21c4 <set_interrupt_handler>:
400d21c4:	004136        	entry	a1, 32
400d21c7:	01a052        	movi	a5, 1
400d21ca:	401200        	ssl	a2
400d21cd:	a15500        	sll	a5, a5
400d21d0:	20a550        	or	a10, a5, a5
400d21d3:	0143a5        	call8	400d360c <z_xt_ints_off>
400d21d6:	f82f81        	l32r	a8, 400d0294 <_image_irom_vaddr+0x274> (3ffb1484 <intr_alloc_table>)
400d21d9:	0e0c      	movi.n	a14, 0
400d21db:	b08280        	addx8	a8, a2, a8
400d21de:	04dd      	mov.n	a13, a4
400d21e0:	03cd      	mov.n	a12, a3
400d21e2:	02bd      	mov.n	a11, a2
400d21e4:	02ad      	mov.n	a10, a2
400d21e6:	0839      	s32i.n	a3, a8, 0
400d21e8:	ffe325        	call8	400d201c <arch_irq_connect_dynamic>
400d21eb:	05ad      	mov.n	a10, a5
400d21ed:	0140a5        	call8	400d35f8 <z_xt_ints_on>
400d21f0:	f01d      	retw.n
	...

400d21f4 <esp_intr_initialize>:
400d21f4:	004136        	entry	a1, 32
400d21f7:	f82781        	l32r	a8, 400d0294 <_image_irom_vaddr+0x274> (3ffb1484 <intr_alloc_table>)
400d21fa:	f827b1        	l32r	a11, 400d0298 <_image_irom_vaddr+0x278> (400d208c <default_intr_handler>)
400d21fd:	0a0c      	movi.n	a10, 0
400d21ff:	092c      	movi.n	a9, 32
400d2201:	078976        	loop	a9, 400d220c <esp_intr_initialize+0x18>
400d2204:	18a9      	s32i.n	a10, a8, 4
400d2206:	08b9      	s32i.n	a11, a8, 0
400d2208:	aa1b      	addi.n	a10, a10, 1
400d220a:	888b      	addi.n	a8, a8, 8
400d220c:	f01d      	retw.n
	...

400d2210 <esp_intr_alloc_intrstatus>:
400d2210:	00c136        	entry	a1, 96
400d2213:	9159      	s32i.n	a5, a1, 36
400d2215:	00a352        	movi	a5, 0x300
400d2218:	8149      	s32i.n	a4, a1, 32
400d221a:	5169      	s32i.n	a6, a1, 20
400d221c:	a179      	s32i.n	a7, a1, 40
400d221e:	106350        	and	a6, a3, a5
400d2221:	a46c      	movi.n	a4, -22
400d2223:	029657        	bne	a6, a5, 400d2229 <esp_intr_alloc_intrstatus+0x19>
400d2226:	00d4c6        	j	400d257d <esp_intr_alloc_intrstatus+0x36d>
400d2229:	f0a042        	movi	a4, 240
400d222c:	104340        	and	a4, a3, a4
400d222f:	149c      	beqz.n	a4, 400d2244 <esp_intr_alloc_intrstatus+0x34>
400d2231:	5158      	l32i.n	a5, a1, 20
400d2233:	a46c      	movi.n	a4, -22
400d2235:	344556        	bnez	a5, 400d257d <esp_intr_alloc_intrstatus+0x36d>
400d2238:	00a152        	movi	a5, 0x100
400d223b:	105350        	and	a5, a3, a5
400d223e:	33b556        	bnez	a5, 400d257d <esp_intr_alloc_intrstatus+0x36d>
400d2241:	000506        	j	400d2259 <esp_intr_alloc_intrstatus+0x49>
400d2244:	00a152        	movi	a5, 0x100
400d2247:	105350        	and	a5, a3, a5
400d224a:	b58c      	beqz.n	a5, 400d2259 <esp_intr_alloc_intrstatus+0x49>
400d224c:	5188      	l32i.n	a8, a1, 20
400d224e:	160c      	movi.n	a6, 1
400d2250:	834680        	moveqz	a4, a6, a8
400d2253:	2fa456        	bnez	a4, 400d2551 <esp_intr_alloc_intrstatus+0x341>
400d2256:	2f7296        	bltz	a2, 400d2551 <esp_intr_alloc_intrstatus+0x341>
400d2259:	8148      	l32i.n	a4, a1, 32
400d225b:	548c      	beqz.n	a4, 400d2264 <esp_intr_alloc_intrstatus+0x54>
400d225d:	9188      	l32i.n	a8, a1, 36
400d225f:	a46c      	movi.n	a4, -22
400d2261:	318816        	beqz	a8, 400d257d <esp_intr_alloc_intrstatus+0x36d>
400d2264:	1163a7        	bbci	a3, 10, 400d2279 <esp_intr_alloc_intrstatus+0x69>
400d2267:	5148      	l32i.n	a4, a1, 20
400d2269:	f80d61        	l32r	a6, 400d02a0 <_image_irom_vaddr+0x280> (bff3e000 <_rtc_bss_end+0x6ff3e000>)
400d226c:	f80e71        	l32r	a7, 400d02a4 <_image_irom_vaddr+0x284> (ff3dfff <CONFIG_SYS_CLOCK_HW_CYCLES_PER_SEC+0x1a5c3ff>)
400d226f:	646a      	add.n	a6, a4, a6
400d2271:	a46c      	movi.n	a4, -22
400d2273:	023767        	bltu	a7, a6, 400d2279 <esp_intr_alloc_intrstatus+0x69>
400d2276:	00c0c6        	j	400d257d <esp_intr_alloc_intrstatus+0x36d>
400d2279:	fea042        	movi	a4, 254
400d227c:	088347        	bany	a3, a4, 400d2288 <esp_intr_alloc_intrstatus+0x78>
400d227f:	240c      	movi.n	a4, 2
400d2281:	05cc      	bnez.n	a5, 400d2285 <esp_intr_alloc_intrstatus+0x75>
400d2283:	e40c      	movi.n	a4, 14
400d2285:	203340        	or	a3, a3, a4
400d2288:	06c252        	addi	a5, a2, 6
400d228b:	f47c      	movi.n	a4, -1
400d228d:	0a65f6        	bgeui	a5, 6, 400d229b <esp_intr_alloc_intrstatus+0x8b>
400d2290:	f80641        	l32r	a4, 400d02a8 <_image_irom_vaddr+0x288> (3f400cc9 <CSWTCH$246>)
400d2293:	445a      	add.n	a4, a4, a5
400d2295:	000442        	l8ui	a4, a4, 0
400d2298:	234400        	sext	a4, a4, 7
400d229b:	8a0c      	movi.n	a10, 8
400d229d:	ffd665        	call8	400d2004 <__wrap_k_malloc>
400d22a0:	41a9      	s32i.n	a10, a1, 16
400d22a2:	2a6a16        	beqz	a10, 400d254c <esp_intr_alloc_intrstatus+0x33c>
400d22a5:	ffda25        	call8	400d2048 <esp_intr_lock>
400d22a8:	03eb50        	rsr.prid	a5
400d22ab:	045d50        	extui	a5, a5, 13, 1
400d22ae:	cc0c      	movi.n	a12, 12
400d22b0:	00a0b2        	movi	a11, 0
400d22b3:	20a110        	or	a10, a1, a1
400d22b6:	b09c65        	call8	40082c7c <memset>
400d22b9:	fea072        	movi	a7, 254
400d22bc:	6139      	s32i.n	a3, a1, 24
400d22be:	068377        	bany	a3, a7, 400d22c8 <esp_intr_alloc_intrstatus+0xb8>
400d22c1:	e70c      	movi.n	a7, 14
400d22c3:	206370        	or	a6, a3, a7
400d22c6:	6169      	s32i.n	a6, a1, 24
400d22c8:	f7f171        	l32r	a7, 400d028c <_image_irom_vaddr+0x26c> (3ffb1480 <vector_desc_head>)
400d22cb:	4a0c      	movi.n	a10, 4
400d22cd:	0788      	l32i.n	a8, a7, 0
400d22cf:	001046        	j	400d2314 <esp_intr_alloc_intrstatus+0x104>
400d22d2:	00          	.byte 00
400d22d3:	00          	.byte 00
400d22d4:	001892        	l16ui	a9, a8, 0
400d22d7:	0878      	l32i.n	a7, a8, 0
400d22d9:	1099a0        	and	a9, a9, a10
400d22dc:	239980        	sext	a9, a9, 15
400d22df:	19dc      	bnez.n	a9, 400d22f4 <esp_intr_alloc_intrstatus+0xe4>
400d22e1:	1197e0        	slli	a9, a7, 2
400d22e4:	319890        	srai	a9, a9, 24
400d22e7:	279297        	bne	a2, a9, 400d2312 <esp_intr_alloc_intrstatus+0x102>
400d22ea:	059070        	extui	a9, a7, 16, 1
400d22ed:	219597        	bne	a5, a9, 400d2312 <esp_intr_alloc_intrstatus+0x102>
400d22f0:	00a006        	j	400d2574 <esp_intr_alloc_intrstatus+0x364>
400d22f3:	00          	.byte 00
400d22f4:	059070        	extui	a9, a7, 16, 1
400d22f7:	179597        	bne	a5, a9, 400d2312 <esp_intr_alloc_intrstatus+0x102>
400d22fa:	18b8      	l32i.n	a11, a8, 4
400d22fc:	0003c6        	j	400d230f <esp_intr_alloc_intrstatus+0xff>
400d22ff:	0b98      	l32i.n	a9, a11, 0
400d2301:	019990        	slli	a9, a9, 23
400d2304:	319890        	srai	a9, a9, 24
400d2307:	029297        	bne	a2, a9, 400d230d <esp_intr_alloc_intrstatus+0xfd>
400d230a:	009986        	j	400d2574 <esp_intr_alloc_intrstatus+0x364>
400d230d:	5bb8      	l32i.n	a11, a11, 20
400d230f:	fecb56        	bnez	a11, 400d22ff <esp_intr_alloc_intrstatus+0xef>
400d2312:	2888      	l32i.n	a8, a8, 8
400d2314:	fbc856        	bnez	a8, 400d22d4 <esp_intr_alloc_intrstatus+0xc4>
400d2317:	008ec6        	j	400d2556 <esp_intr_alloc_intrstatus+0x346>
400d231a:	00          	.byte 00
400d231b:	00          	.byte 00
400d231c:	457170        	extui	a7, a7, 17, 5
400d231f:	021477        	beq	a4, a7, 400d2325 <esp_intr_alloc_intrstatus+0x115>
400d2322:	003986        	j	400d240c <esp_intr_alloc_intrstatus+0x1fc>
400d2325:	0621b2        	l32i	a11, a1, 24
400d2328:	20a880        	or	a10, a8, a8
400d232b:	0c6182        	s32i	a8, a1, 48
400d232e:	04dd      	mov.n	a13, a4
400d2330:	05cd      	mov.n	a12, a5
400d2332:	ffd6e5        	call8	400d20a0 <is_vect_desc_usable>
400d2335:	c188      	l32i.n	a8, a1, 48
400d2337:	0d1a16        	beqz	a10, 400d240c <esp_intr_alloc_intrstatus+0x1fc>
400d233a:	0848      	l32i.n	a4, a8, 0
400d233c:	000d46        	j	400d2375 <esp_intr_alloc_intrstatus+0x165>
400d233f:	00          	.byte 00
400d2340:	05bd      	mov.n	a11, a5
400d2342:	04ad      	mov.n	a10, a4
400d2344:	ffd225        	call8	400d2068 <find_desc_for_int>
400d2347:	0a7d      	mov.n	a7, a10
400d2349:	5adc      	bnez.n	a10, 400d2362 <esp_intr_alloc_intrstatus+0x152>
400d234b:	0178      	l32i.n	a7, a1, 0
400d234d:	f7d391        	l32r	a9, 400d029c <_image_irom_vaddr+0x27c> (ffc1ffff <_rtc_bss_end+0xafc1ffff>)
400d2350:	448040        	extui	a8, a4, 0, 5
400d2353:	0188f0        	slli	a8, a8, 17
400d2356:	107790        	and	a7, a7, a9
400d2359:	207780        	or	a7, a7, a8
400d235c:	006172        	s32i	a7, a1, 0
400d235f:	207110        	or	a7, a1, a1
400d2362:	0621b2        	l32i	a11, a1, 24
400d2365:	20d440        	or	a13, a4, a4
400d2368:	20c550        	or	a12, a5, a5
400d236b:	07ad      	mov.n	a10, a7
400d236d:	ffd325        	call8	400d20a0 <is_vect_desc_usable>
400d2370:	098a16        	beqz	a10, 400d240c <esp_intr_alloc_intrstatus+0x1fc>
400d2373:	0748      	l32i.n	a4, a7, 0
400d2375:	454140        	extui	a4, a4, 17, 5
400d2378:	002806        	j	400d241c <esp_intr_alloc_intrstatus+0x20c>
400d237b:	00          	.byte 00
400d237c:	05bd      	mov.n	a11, a5
400d237e:	06ad      	mov.n	a10, a6
400d2380:	ffce65        	call8	400d2068 <find_desc_for_int>
400d2383:	0a9d      	mov.n	a9, a10
400d2385:	3adc      	bnez.n	a10, 400d239c <esp_intr_alloc_intrstatus+0x18c>
400d2387:	0198      	l32i.n	a9, a1, 0
400d2389:	f7c481        	l32r	a8, 400d029c <_image_irom_vaddr+0x27c> (ffc1ffff <_rtc_bss_end+0xafc1ffff>)
400d238c:	44a060        	extui	a10, a6, 0, 5
400d238f:	01aaf0        	slli	a10, a10, 17
400d2392:	109980        	and	a9, a9, a8
400d2395:	2099a0        	or	a9, a9, a10
400d2398:	0199      	s32i.n	a9, a1, 0
400d239a:	019d      	mov.n	a9, a1
400d239c:	0621b2        	l32i	a11, a1, 24
400d239f:	20a990        	or	a10, a9, a9
400d23a2:	0c6192        	s32i	a9, a1, 48
400d23a5:	fd7c      	movi.n	a13, -1
400d23a7:	05cd      	mov.n	a12, a5
400d23a9:	ffcf65        	call8	400d20a0 <is_vect_desc_usable>
400d23ac:	c198      	l32i.n	a9, a1, 48
400d23ae:	04fa16        	beqz	a10, 400d2401 <esp_intr_alloc_intrstatus+0x1f1>
400d23b1:	b188      	l32i.n	a8, a1, 44
400d23b3:	58bc      	beqz.n	a8, 400d23ec <esp_intr_alloc_intrstatus+0x1dc>
400d23b5:	0019a2        	l16ui	a10, a9, 0
400d23b8:	480c      	movi.n	a8, 4
400d23ba:	10aa80        	and	a10, a10, a8
400d23bd:	23aa80        	sext	a10, a10, 15
400d23c0:	5aac      	beqz.n	a10, 400d23e9 <esp_intr_alloc_intrstatus+0x1d9>
400d23c2:	19a8      	l32i.n	a10, a9, 4
400d23c4:	090c      	movi.n	a9, 0
400d23c6:	000146        	j	400d23cf <esp_intr_alloc_intrstatus+0x1bf>
400d23c9:	052aa2        	l32i	a10, a10, 20
400d23cc:	01c992        	addi	a9, a9, 1
400d23cf:	ff6a56        	bnez	a10, 400d23c9 <esp_intr_alloc_intrstatus+0x1b9>
400d23d2:	0c6192        	s32i	a9, a1, 48
400d23d5:	06ad      	mov.n	a10, a6
400d23d7:	ffbd25        	call8	400d1fa8 <interrupt_controller_hal_desc_level>
400d23da:	c198      	l32i.n	a9, a1, 48
400d23dc:	7188      	l32i.n	a8, a1, 28
400d23de:	182987        	blt	a9, a8, 400d23fa <esp_intr_alloc_intrstatus+0x1ea>
400d23e1:	1caa77        	bge	a10, a7, 400d2401 <esp_intr_alloc_intrstatus+0x1f1>
400d23e4:	000486        	j	400d23fa <esp_intr_alloc_intrstatus+0x1ea>
400d23e7:	00          	.byte 00
400d23e8:	00          	.byte 00
400d23e9:	140466        	bnei	a4, -1, 400d2401 <esp_intr_alloc_intrstatus+0x1f1>
400d23ec:	06ad      	mov.n	a10, a6
400d23ee:	ffbba5        	call8	400d1fa8 <interrupt_controller_hal_desc_level>
400d23f1:	0caa77        	bge	a10, a7, 400d2401 <esp_intr_alloc_intrstatus+0x1f1>
400d23f4:	000106        	j	400d23fc <esp_intr_alloc_intrstatus+0x1ec>
400d23f7:	00          	.byte 00
400d23f8:	00          	.byte 00
400d23f9:	00          	.byte 00
400d23fa:	7199      	s32i.n	a9, a1, 28
400d23fc:	0a7d      	mov.n	a7, a10
400d23fe:	204660        	or	a4, a6, a6
400d2401:	661b      	addi.n	a6, a6, 1
400d2403:	02c626        	beqi	a6, 32, 400d2409 <esp_intr_alloc_intrstatus+0x1f9>
400d2406:	ffdc86        	j	400d237c <esp_intr_alloc_intrstatus+0x16c>
400d2409:	0f0466        	bnei	a4, -1, 400d241c <esp_intr_alloc_intrstatus+0x20c>
400d240c:	ffc4a5        	call8	400d2058 <esp_intr_unlock>
400d240f:	0421a2        	l32i	a10, a1, 16
400d2412:	edaf42        	movi	a4, -19
400d2415:	afa2e5        	call8	40081e44 <k_free>
400d2418:	005846        	j	400d257d <esp_intr_alloc_intrstatus+0x36d>
400d241b:	00          	.byte 00
400d241c:	20b550        	or	a11, a5, a5
400d241f:	20a440        	or	a10, a4, a4
400d2422:	ffd125        	call8	400d2134 <get_desc_for_int>
400d2425:	206aa0        	or	a6, a10, a10
400d2428:	1acc      	bnez.n	a10, 400d242d <esp_intr_alloc_intrstatus+0x21d>
400d242a:	000306        	j	400d243a <esp_intr_alloc_intrstatus+0x22a>
400d242d:	5f6387        	bbci	a3, 8, 400d2490 <esp_intr_alloc_intrstatus+0x280>
400d2430:	18a0a2        	movi	a10, 24
400d2433:	ffbd25        	call8	400d2004 <__wrap_k_malloc>
400d2436:	0a7d      	mov.n	a7, a10
400d2438:	aacc      	bnez.n	a10, 400d2446 <esp_intr_alloc_intrstatus+0x236>
400d243a:	ffc1e5        	call8	400d2058 <esp_intr_unlock>
400d243d:	41a8      	l32i.n	a10, a1, 16
400d243f:	afa065        	call8	40081e44 <k_free>
400d2442:	004186        	j	400d254c <esp_intr_alloc_intrstatus+0x33c>
400d2445:	00          	.byte 00
400d2446:	8c1c      	movi.n	a12, 24
400d2448:	0b0c      	movi.n	a11, 0
400d244a:	b08325        	call8	40082c7c <memset>
400d244d:	8188      	l32i.n	a8, a1, 32
400d244f:	0017a2        	l16ui	a10, a7, 0
400d2452:	1789      	s32i.n	a8, a7, 4
400d2454:	9188      	l32i.n	a8, a1, 36
400d2456:	00aeb2        	movi	a11, 0xfffffe00
400d2459:	2789      	s32i.n	a8, a7, 8
400d245b:	5188      	l32i.n	a8, a1, 20
400d245d:	10aab0        	and	a10, a10, a11
400d2460:	3789      	s32i.n	a8, a7, 12
400d2462:	a188      	l32i.n	a8, a1, 40
400d2464:	f792b1        	l32r	a11, 400d02ac <_image_irom_vaddr+0x28c> (40080680 <shared_intr_isr>)
400d2467:	4789      	s32i.n	a8, a7, 16
400d2469:	1698      	l32i.n	a9, a6, 4
400d246b:	06cd      	mov.n	a12, a6
400d246d:	5799      	s32i.n	a9, a7, 20
400d246f:	749020        	extui	a9, a2, 0, 8
400d2472:	999a      	add.n	a9, a9, a9
400d2474:	2099a0        	or	a9, a9, a10
400d2477:	005792        	s16i	a9, a7, 0
400d247a:	1679      	s32i.n	a7, a6, 4
400d247c:	001672        	l16ui	a7, a6, 0
400d247f:	490c      	movi.n	a9, 4
400d2481:	207790        	or	a7, a7, a9
400d2484:	005672        	s16i	a7, a6, 0
400d2487:	04ad      	mov.n	a10, a4
400d2489:	ffd3a5        	call8	400d21c4 <set_interrupt_handler>
400d248c:	000e46        	j	400d24c9 <esp_intr_alloc_intrstatus+0x2b9>
400d248f:	00          	.byte 00
400d2490:	08a072        	movi	a7, 8
400d2493:	052182        	l32i	a8, a1, 20
400d2496:	005a72        	s16i	a7, a10, 0
400d2499:	008816        	beqz	a8, 400d24a5 <esp_intr_alloc_intrstatus+0x295>
400d249c:	a1c8      	l32i.n	a12, a1, 40
400d249e:	08bd      	mov.n	a11, a8
400d24a0:	04ad      	mov.n	a10, a4
400d24a2:	ffd225        	call8	400d21c4 <set_interrupt_handler>
400d24a5:	0d6397        	bbci	a3, 9, 400d24b6 <esp_intr_alloc_intrstatus+0x2a6>
400d24a8:	1a0c      	movi.n	a10, 1
400d24aa:	401400        	ssl	a4
400d24ad:	a1aa00        	sll	a10, a10
400d24b0:	f78281        	l32r	a8, 400d02b8 <_image_irom_vaddr+0x298> (4000c1ec <xthal_set_intclear>)
400d24b3:	0008e0        	callx8	a8
400d24b6:	0678      	l32i.n	a7, a6, 0
400d24b8:	f77ea1        	l32r	a10, 400d02b0 <_image_irom_vaddr+0x290> (c03fffff <_rtc_bss_end+0x703fffff>)
400d24bb:	749020        	extui	a9, a2, 0, 8
400d24be:	0199a0        	slli	a9, a9, 22
400d24c1:	1077a0        	and	a7, a7, a10
400d24c4:	207790        	or	a7, a7, a9
400d24c7:	0679      	s32i.n	a7, a6, 0
400d24c9:	f77aa1        	l32r	a10, 400d02b4 <_image_irom_vaddr+0x294> (3ffb147c <non_iram_int_mask>)
400d24cc:	1b0c      	movi.n	a11, 1
400d24ce:	a075a0        	addx4	a7, a5, a10
400d24d1:	009692        	l16si	a9, a6, 0
400d24d4:	0778      	l32i.n	a7, a7, 0
400d24d6:	401400        	ssl	a4
400d24d9:	a1bb00        	sll	a11, a11
400d24dc:	11c5e0        	slli	a12, a5, 2
400d24df:	0f63a7        	bbci	a3, 10, 400d24f2 <esp_intr_alloc_intrstatus+0x2e2>
400d24e2:	2d0c      	movi.n	a13, 2
400d24e4:	2099d0        	or	a9, a9, a13
400d24e7:	fd7c      	movi.n	a13, -1
400d24e9:	30bdb0        	xor	a11, a13, a11
400d24ec:	107b70        	and	a7, a11, a7
400d24ef:	0001c6        	j	400d24fa <esp_intr_alloc_intrstatus+0x2ea>
400d24f2:	dd7c      	movi.n	a13, -3
400d24f4:	1099d0        	and	a9, a9, a13
400d24f7:	207b70        	or	a7, a11, a7
400d24fa:	aaca      	add.n	a10, a10, a12
400d24fc:	005692        	s16i	a9, a6, 0
400d24ff:	0a79      	s32i.n	a7, a10, 0
400d2501:	00b296        	bltz	a2, 400d2510 <esp_intr_alloc_intrstatus+0x300>
400d2504:	04cd      	mov.n	a12, a4
400d2506:	02bd      	mov.n	a11, a2
400d2508:	05ad      	mov.n	a10, a5
400d250a:	f76c81        	l32r	a8, 400d02bc <_image_irom_vaddr+0x29c> (4000681c <intr_matrix_set>)
400d250d:	0008e0        	callx8	a8
400d2510:	042122        	l32i	a2, a1, 16
400d2513:	042152        	l32i	a5, a1, 16
400d2516:	0269      	s32i.n	a6, a2, 0
400d2518:	1628      	l32i.n	a2, a6, 4
400d251a:	1a0c      	movi.n	a10, 1
400d251c:	016522        	s32i	a2, a5, 4
400d251f:	401400        	ssl	a4
400d2522:	a1aa00        	sll	a10, a10
400d2525:	010d25        	call8	400d35f8 <z_xt_ints_on>
400d2528:	0463b7        	bbci	a3, 11, 400d2530 <esp_intr_alloc_intrstatus+0x320>
400d252b:	41a8      	l32i.n	a10, a1, 16
400d252d:	ae1865        	call8	400806b4 <esp_intr_disable>
400d2530:	ffb265        	call8	400d2058 <esp_intr_unlock>
400d2533:	182162        	l32i	a6, a1, 96
400d2536:	00a616        	beqz	a6, 400d2544 <esp_intr_alloc_intrstatus+0x334>
400d2539:	042182        	l32i	a8, a1, 16
400d253c:	0689      	s32i.n	a8, a6, 0
400d253e:	00a042        	movi	a4, 0
400d2541:	000e06        	j	400d257d <esp_intr_alloc_intrstatus+0x36d>
400d2544:	41a8      	l32i.n	a10, a1, 16
400d2546:	af8fe5        	call8	40081e44 <k_free>
400d2549:	fffc46        	j	400d253e <esp_intr_alloc_intrstatus+0x32e>
400d254c:	447c      	movi.n	a4, -12
400d254e:	000ac6        	j	400d257d <esp_intr_alloc_intrstatus+0x36d>
400d2551:	a46c      	movi.n	a4, -22
400d2553:	000986        	j	400d257d <esp_intr_alloc_intrstatus+0x36d>
400d2556:	020426        	beqi	a4, -1, 400d255c <esp_intr_alloc_intrstatus+0x34c>
400d2559:	ff78c6        	j	400d2340 <esp_intr_alloc_intrstatus+0x130>
400d255c:	f6bf61        	l32r	a6, 400d0058 <_image_irom_vaddr+0x38> (7fffffff <_rtc_bss_end+0x2fffffff>)
400d255f:	00a192        	movi	a9, 0x100
400d2562:	7169      	s32i.n	a6, a1, 28
400d2564:	086d      	mov.n	a6, a8
400d2566:	6188      	l32i.n	a8, a1, 24
400d2568:	970c      	movi.n	a7, 9
400d256a:	109890        	and	a9, a8, a9
400d256d:	b199      	s32i.n	a9, a1, 44
400d256f:	ff8246        	j	400d237c <esp_intr_alloc_intrstatus+0x16c>
400d2572:	00          	.byte 00
400d2573:	00          	.byte 00
400d2574:	020426        	beqi	a4, -1, 400d257a <esp_intr_alloc_intrstatus+0x36a>
400d2577:	ff6846        	j	400d231c <esp_intr_alloc_intrstatus+0x10c>
400d257a:	ff69c6        	j	400d2325 <esp_intr_alloc_intrstatus+0x115>
400d257d:	042d      	mov.n	a2, a4
400d257f:	f01d      	retw.n
400d2581:	000000        	ill

400d2584 <esp_intr_alloc>:
400d2584:	006136        	entry	a1, 48
400d2587:	0d0c      	movi.n	a13, 0
400d2589:	0169      	s32i.n	a6, a1, 0
400d258b:	05fd      	mov.n	a15, a5
400d258d:	04ed      	mov.n	a14, a4
400d258f:	0dcd      	mov.n	a12, a13
400d2591:	03bd      	mov.n	a11, a3
400d2593:	02ad      	mov.n	a10, a2
400d2595:	ffc7a5        	call8	400d2210 <esp_intr_alloc_intrstatus>
400d2598:	0a2d      	mov.n	a2, a10
400d259a:	f01d      	retw.n

400d259c <clock_control_esp32_get_status>:
400d259c:	004136        	entry	a1, 32
400d259f:	d21c      	movi.n	a2, 29
400d25a1:	173237        	bltu	a2, a3, 400d25bc <clock_control_esp32_get_status+0x20>
400d25a4:	681c      	movi.n	a8, 22
400d25a6:	f72e21        	l32r	a2, 400d0260 <_image_irom_vaddr+0x240> (3ff000cc <__device_deps_end+0xaff1c8>)
400d25a9:	273837        	bltu	a8, a3, 400d25d4 <clock_control_esp32_get_status+0x38>
400d25ac:	ecc382        	addi	a8, a3, -20
400d25af:	f72a21        	l32r	a2, 400d0258 <_image_irom_vaddr+0x238> (3ff000c0 <__device_deps_end+0xaff1bc>)
400d25b2:	1e28f6        	bgeui	a8, 2, 400d25d4 <clock_control_esp32_get_status+0x38>
400d25b5:	f72a21        	l32r	a2, 400d0260 <_image_irom_vaddr+0x240> (3ff000cc <__device_deps_end+0xaff1c8>)
400d25b8:	000606        	j	400d25d4 <clock_control_esp32_get_status+0x38>
400d25bb:	00          	.byte 00
400d25bc:	e2c382        	addi	a8, a3, -30
400d25bf:	f72721        	l32r	a2, 400d025c <_image_irom_vaddr+0x23c> (3ff0001c <__device_deps_end+0xaff118>)
400d25c2:	0e38b6        	bltui	a8, 3, 400d25d4 <clock_control_esp32_get_status+0x38>
400d25c5:	f72421        	l32r	a2, 400d0258 <_image_irom_vaddr+0x238> (3ff000c0 <__device_deps_end+0xaff1bc>)
400d25c8:	0020c0        	memw
400d25cb:	0228      	l32i.n	a2, a2, 0
400d25cd:	120c      	movi.n	a2, 1
400d25cf:	000606        	j	400d25eb <clock_control_esp32_get_status+0x4f>
400d25d2:	00          	.byte 00
400d25d3:	00          	.byte 00
400d25d4:	f73b81        	l32r	a8, 400d02c0 <_image_irom_vaddr+0x2a0> (3f400884 <CSWTCH$7>)
400d25d7:	0020c0        	memw
400d25da:	0228      	l32i.n	a2, a2, 0
400d25dc:	a03380        	addx4	a3, a3, a8
400d25df:	0338      	l32i.n	a3, a3, 0
400d25e1:	280c      	movi.n	a8, 2
400d25e3:	103230        	and	a3, a2, a3
400d25e6:	120c      	movi.n	a2, 1
400d25e8:	932830        	movnez	a2, a8, a3
400d25eb:	f01d      	retw.n
400d25ed:	000000        	ill

400d25f0 <clock_control_esp32_get_rate>:
400d25f0:	006136        	entry	a1, 48
400d25f3:	01ad      	mov.n	a10, a1
400d25f5:	feb825        	call8	400d1178 <rtc_clk_cpu_freq_get_config>
400d25f8:	3188      	l32i.n	a8, a1, 12
400d25fa:	020c      	movi.n	a2, 0
400d25fc:	0489      	s32i.n	a8, a4, 0
400d25fe:	f01d      	retw.n

400d2600 <clock_control_esp32_off>:
400d2600:	004136        	entry	a1, 32
400d2603:	03ad      	mov.n	a10, a3
400d2605:	ff8b25        	call8	400d1eb8 <periph_module_disable>
400d2608:	020c      	movi.n	a2, 0
400d260a:	f01d      	retw.n

400d260c <clock_control_esp32_on>:
400d260c:	004136        	entry	a1, 32
400d260f:	03ad      	mov.n	a10, a3
400d2611:	ff8165        	call8	400d1e28 <periph_module_enable>
400d2614:	020c      	movi.n	a2, 0
400d2616:	f01d      	retw.n

400d2618 <clock_control_esp32_init>:
400d2618:	008136        	entry	a1, 64
400d261b:	012232        	l32i	a3, a2, 4
400d261e:	fedb25        	call8	400d13d0 <rtc_clk_apb_freq_get>
400d2621:	f72a21        	l32r	a2, 400d02cc <_image_irom_vaddr+0x2ac> (4c4b3ff <CONFIG_FLASH_SIZE+0x484b3ff>)
400d2624:	6132a7        	bltu	a2, a10, 400d2689 <clock_control_esp32_init+0x71>
400d2627:	f72a21        	l32r	a2, 400d02d0 <_image_irom_vaddr+0x2b0> (3f400044 <__rodata_region_start+0x4>)
400d262a:	0248      	l32i.n	a4, a2, 0
400d262c:	1228      	l32i.n	a2, a2, 4
400d262e:	0149      	s32i.n	a4, a1, 0
400d2630:	1129      	s32i.n	a2, a1, 4
400d2632:	2348      	l32i.n	a4, a3, 8
400d2634:	f72821        	l32r	a2, 400d02d4 <_image_irom_vaddr+0x2b4> (3f400ce7 <xtal_freq>)
400d2637:	224a      	add.n	a2, a2, a4
400d2639:	000222        	l8ui	a2, a2, 0
400d263c:	004122        	s8i	a2, a1, 0
400d263f:	1348      	l32i.n	a4, a3, 4
400d2641:	fe8e65        	call8	400d0f28 <rtc_clk_slow_freq_get>
400d2644:	0a2d      	mov.n	a2, a10
400d2646:	fe9225        	call8	400d0f68 <rtc_clk_fast_freq_get>
400d2649:	180c      	movi.n	a8, 1
400d264b:	0188e0        	slli	a8, a8, 18
400d264e:	01aae0        	slli	a10, a10, 18
400d2651:	10aa80        	and	a10, a10, a8
400d2654:	ffa382        	movi	a8, 0x3ff
400d2657:	118880        	slli	a8, a8, 8
400d265a:	114480        	slli	a4, a4, 8
400d265d:	104480        	and	a4, a4, a8
400d2660:	20aa40        	or	a10, a10, a4
400d2663:	340c      	movi.n	a4, 3
400d2665:	0144d0        	slli	a4, a4, 19
400d2668:	0122d0        	slli	a2, a2, 19
400d266b:	102240        	and	a2, a2, a4
400d266e:	20aa20        	or	a10, a10, a2
400d2671:	f71941        	l32r	a4, 400d02d8 <_image_irom_vaddr+0x2b8> (ffe000ff <_rtc_bss_end+0xafe000ff>)
400d2674:	0128      	l32i.n	a2, a1, 0
400d2676:	11b8      	l32i.n	a11, a1, 4
400d2678:	102240        	and	a2, a2, a4
400d267b:	20aa20        	or	a10, a10, a2
400d267e:	0061a2        	s32i	a10, a1, 0
400d2681:	ff4325        	call8	400d1ab4 <rtc_clk_init>
400d2684:	000346        	j	400d2695 <clock_control_esp32_init+0x7d>
400d2687:	00          	.byte 00
400d2688:	00          	.byte 00
400d2689:	00a0a2        	movi	a10, 0
400d268c:	f71881        	l32r	a8, 400d02ec <_image_irom_vaddr+0x2cc> (400081d4 <esp_rom_get_reset_reason>)
400d268f:	0008e0        	callx8	a8
400d2692:	91aa66        	bnei	a10, 12, 400d2627 <clock_control_esp32_init+0xf>
400d2695:	01a0a2        	movi	a10, 1
400d2698:	fe89e5        	call8	400d0f38 <rtc_clk_fast_freq_set>
400d269b:	10c1a2        	addi	a10, a1, 16
400d269e:	feada5        	call8	400d1178 <rtc_clk_cpu_freq_get_config>
400d26a1:	1348      	l32i.n	a4, a3, 4
400d26a3:	01bd      	mov.n	a11, a1
400d26a5:	04ad      	mov.n	a10, a4
400d26a7:	7158      	l32i.n	a5, a1, 28
400d26a9:	fea765        	call8	400d1120 <rtc_clk_cpu_freq_mhz_to_config>
400d26ac:	7aaf22        	movi	a2, -134
400d26af:	103a16        	beqz	a10, 400d27b6 <clock_control_esp32_init+0x19e>
400d26b2:	0a0c      	movi.n	a10, 0
400d26b4:	f67781        	l32r	a8, 400d0090 <_image_irom_vaddr+0x70> (40009278 <esp_rom_uart_tx_wait_idle>)
400d26b7:	0008e0        	callx8	a8
400d26ba:	3328      	l32i.n	a2, a3, 12
400d26bc:	002296        	bltz	a2, 400d26c2 <clock_control_esp32_init+0xaa>
400d26bf:	026122        	s32i	a2, a1, 8
400d26c2:	0328      	l32i.n	a2, a3, 0
400d26c4:	001296        	bltz	a2, 400d26c9 <clock_control_esp32_init+0xb1>
400d26c7:	0129      	s32i.n	a2, a1, 0
400d26c9:	01ad      	mov.n	a10, a1
400d26cb:	febfa5        	call8	400d12c4 <rtc_clk_cpu_freq_set_config>
400d26ce:	03eaa0        	rsr.ccount	a10
400d26d1:	a2ba40        	muluh	a11, a10, a4
400d26d4:	82aa40        	mull	a10, a10, a4
400d26d7:	05cd      	mov.n	a12, a5
400d26d9:	0d0c      	movi.n	a13, 0
400d26db:	f66e81        	l32r	a8, 400d0094 <_image_irom_vaddr+0x74> (4000cff8 <__udivdi3>)
400d26de:	0008e0        	callx8	a8
400d26e1:	13eaa0        	wsr.ccount	a10
400d26e4:	0a0c      	movi.n	a10, 0
400d26e6:	f70281        	l32r	a8, 400d02f0 <_image_irom_vaddr+0x2d0> (400081d4 <esp_rom_get_reset_reason>)
400d26e9:	0008e0        	callx8	a8
400d26ec:	f5caa2        	addi	a10, a10, -11
400d26ef:	253af6        	bgeui	a10, 3, 400d2718 <clock_control_esp32_init+0x100>
400d26f2:	f6d921        	l32r	a2, 400d0258 <_image_irom_vaddr+0x238> (3ff000c0 <__device_deps_end+0xaff1bc>)
400d26f5:	f47c      	movi.n	a4, -1
400d26f7:	0020c0        	memw
400d26fa:	0288      	l32i.n	a8, a2, 0
400d26fc:	f6d821        	l32r	a2, 400d025c <_image_irom_vaddr+0x23c> (3ff0001c <__device_deps_end+0xaff118>)
400d26ff:	308480        	xor	a8, a4, a8
400d2702:	0020c0        	memw
400d2705:	0298      	l32i.n	a9, a2, 0
400d2707:	f6d621        	l32r	a2, 400d0260 <_image_irom_vaddr+0x240> (3ff000cc <__device_deps_end+0xaff1c8>)
400d270a:	309490        	xor	a9, a4, a9
400d270d:	0020c0        	memw
400d2710:	0228      	l32i.n	a2, a2, 0
400d2712:	304420        	xor	a4, a4, a2
400d2715:	000206        	j	400d2721 <clock_control_esp32_init+0x109>
400d2718:	f6eb41        	l32r	a4, 400d02c4 <_image_irom_vaddr+0x2a4> (37c36 <CONFIG_ESP_HEAP_MEM_POOL_REGION_1_SIZE+0x2bc36>)
400d271b:	f6eb81        	l32r	a8, 400d02c8 <_image_irom_vaddr+0x2a8> (61a8c08 <CONFIG_FLASH_SIZE+0x5da8c08>)
400d271e:	0fa092        	movi	a9, 15
400d2721:	f6ee21        	l32r	a2, 400d02dc <_image_irom_vaddr+0x2bc> (fffeffbd <_rtc_bss_end+0xaffeffbd>)
400d2724:	f6f0a1        	l32r	a10, 400d02e4 <_image_irom_vaddr+0x2c4> (3ff4f0ac <RTCCNTL+0x70ac>)
400d2727:	108820        	and	a8, a8, a2
400d272a:	f6ed21        	l32r	a2, 400d02e0 <_image_irom_vaddr+0x2c0> (641394 <CONFIG_FLASH_SIZE+0x241394>)
400d272d:	0020c0        	memw
400d2730:	002a32        	l32i	a3, a10, 0
400d2733:	208820        	or	a8, a8, a2
400d2736:	01a022        	movi	a2, 1
400d2739:	0122b0        	slli	a2, a2, 21
400d273c:	203320        	or	a3, a3, a2
400d273f:	0020c0        	memw
400d2742:	0a39      	s32i.n	a3, a10, 0
400d2744:	f6e9a1        	l32r	a10, 400d02e8 <_image_irom_vaddr+0x2c8> (3ff6d0ac <TIMERG1+0xd0ac>)
400d2747:	0020c0        	memw
400d274a:	0a38      	l32i.n	a3, a10, 0
400d274c:	202320        	or	a2, a3, a2
400d274f:	0020c0        	memw
400d2752:	0a29      	s32i.n	a2, a10, 0
400d2754:	f6c1a1        	l32r	a10, 400d0258 <_image_irom_vaddr+0x238> (3ff000c0 <__device_deps_end+0xaff1bc>)
400d2757:	f37c      	movi.n	a3, -1
400d2759:	0020c0        	memw
400d275c:	0a58      	l32i.n	a5, a10, 0
400d275e:	302380        	xor	a2, a3, a8
400d2761:	102250        	and	a2, a2, a5
400d2764:	0020c0        	memw
400d2767:	0a29      	s32i.n	a2, a10, 0
400d2769:	f6baa1        	l32r	a10, 400d0254 <_image_irom_vaddr+0x234> (3ff000c4 <__device_deps_end+0xaff1c0>)
400d276c:	0020c0        	memw
400d276f:	0a28      	l32i.n	a2, a10, 0
400d2771:	202820        	or	a2, a8, a2
400d2774:	f6ba81        	l32r	a8, 400d025c <_image_irom_vaddr+0x23c> (3ff0001c <__device_deps_end+0xaff118>)
400d2777:	0020c0        	memw
400d277a:	0a29      	s32i.n	a2, a10, 0
400d277c:	0020c0        	memw
400d277f:	0858      	l32i.n	a5, a8, 0
400d2781:	302390        	xor	a2, a3, a9
400d2784:	102250        	and	a2, a2, a5
400d2787:	0020c0        	memw
400d278a:	0829      	s32i.n	a2, a8, 0
400d278c:	f6b021        	l32r	a2, 400d024c <_image_irom_vaddr+0x22c> (3ff00020 <__device_deps_end+0xaff11c>)
400d278f:	308340        	xor	a8, a3, a4
400d2792:	0020c0        	memw
400d2795:	0258      	l32i.n	a5, a2, 0
400d2797:	8a1c      	movi.n	a10, 24
400d2799:	209950        	or	a9, a9, a5
400d279c:	0020c0        	memw
400d279f:	0299      	s32i.n	a9, a2, 0
400d27a1:	f6af21        	l32r	a2, 400d0260 <_image_irom_vaddr+0x240> (3ff000cc <__device_deps_end+0xaff1c8>)
400d27a4:	0020c0        	memw
400d27a7:	0258      	l32i.n	a5, a2, 0
400d27a9:	108850        	and	a8, a8, a5
400d27ac:	0020c0        	memw
400d27af:	0289      	s32i.n	a8, a2, 0
400d27b1:	ff6765        	call8	400d1e28 <periph_module_enable>
400d27b4:	020c      	movi.n	a2, 0
400d27b6:	f01d      	retw.n

400d27b8 <uart_console_init>:
400d27b8:	004136        	entry	a1, 32
400d27bb:	f6cea1        	l32r	a10, 400d02f4 <_image_irom_vaddr+0x2d4> (3f400e98 <__device_dts_ord_61>)
400d27be:	edaf22        	movi	a2, -19
400d27c1:	af6ca5        	call8	40081e8c <z_device_is_ready>
400d27c4:	00ea16        	beqz	a10, 400d27d6 <uart_console_init+0x1e>
400d27c7:	f6cc21        	l32r	a2, 400d02f8 <_image_irom_vaddr+0x2d8> (40082bd4 <console_out>)
400d27ca:	02ad      	mov.n	a10, a2
400d27cc:	ff85e5        	call8	400d202c <__stdout_hook_install>
400d27cf:	02ad      	mov.n	a10, a2
400d27d1:	fdb9e5        	call8	400d0370 <__printk_hook_install>
400d27d4:	020c      	movi.n	a2, 0
400d27d6:	f01d      	retw.n

400d27d8 <entropy_esp32_get_entropy>:
400d27d8:	006136        	entry	a1, 48
400d27db:	f42040        	extui	a2, a4, 0, 16
400d27de:	f6c741        	l32r	a4, 400d02fc <_image_irom_vaddr+0x2dc> (3ffb1588 <last_ccount$0>)
400d27e1:	000ec6        	j	400d2820 <entropy_esp32_get_entropy+0x48>
400d27e4:	addde5        	call8	400805c4 <esp_clk_cpu_freq>
400d27e7:	205aa0        	or	a5, a10, a10
400d27ea:	addea5        	call8	400805d4 <esp_clk_apb_freq>
400d27ed:	d2a5a0        	quos	a10, a5, a10
400d27f0:	0498      	l32i.n	a9, a4, 0
400d27f2:	11aac0        	slli	a10, a10, 4
400d27f5:	03ea50        	rsr.ccount	a5
400d27f8:	c08590        	sub	a8, a5, a9
400d27fb:	f638a7        	bltu	a8, a10, 400d27f5 <entropy_esp32_get_entropy+0x1d>
400d27fe:	0459      	s32i.n	a5, a4, 0
400d2800:	f6c051        	l32r	a5, 400d0300 <_image_irom_vaddr+0x2e0> (60035144 <_rtc_bss_end+0x10035144>)
400d2803:	03ad      	mov.n	a10, a3
400d2805:	0020c0        	memw
400d2808:	0558      	l32i.n	a5, a5, 0
400d280a:	01bd      	mov.n	a11, a1
400d280c:	0159      	s32i.n	a5, a1, 0
400d280e:	450c      	movi.n	a5, 4
400d2810:	635250        	minu	a5, a2, a5
400d2813:	05cd      	mov.n	a12, a5
400d2815:	335a      	add.n	a3, a3, a5
400d2817:	c05250        	sub	a5, a2, a5
400d281a:	b03fe5        	call8	40082c18 <memcpy>
400d281d:	f42050        	extui	a2, a5, 0, 16
400d2820:	fc0256        	bnez	a2, 400d27e4 <entropy_esp32_get_entropy+0xc>
400d2823:	f01d      	retw.n
400d2825:	000000        	ill

400d2828 <rtcio_ll_set_drive_capability>:
400d2828:	004136        	entry	a1, 32
400d282b:	f6b681        	l32r	a8, 400d0304 <_image_irom_vaddr+0x2e4> (3f4000ec <rtc_io_desc>)
400d282e:	f02220        	subx8	a2, a2, a2
400d2831:	b02280        	addx8	a2, a2, a8
400d2834:	b298      	l32i.n	a9, a2, 44
400d2836:	69ac      	beqz.n	a9, 400d2860 <rtcio_ll_set_drive_capability+0x38>
400d2838:	02a8      	l32i.n	a10, a2, 0
400d283a:	c228      	l32i.n	a2, a2, 48
400d283c:	0020c0        	memw
400d283f:	0ab8      	l32i.n	a11, a10, 0
400d2841:	401200        	ssl	a2
400d2844:	a1c900        	sll	a12, a9
400d2847:	f87c      	movi.n	a8, -1
400d2849:	3088c0        	xor	a8, a8, a12
400d284c:	109930        	and	a9, a9, a3
400d284f:	1088b0        	and	a8, a8, a11
400d2852:	401200        	ssl	a2
400d2855:	a19900        	sll	a9, a9
400d2858:	208890        	or	a8, a8, a9
400d285b:	0020c0        	memw
400d285e:	0a89      	s32i.n	a8, a10, 0
400d2860:	f01d      	retw.n
	...

400d2864 <gpio_esp32_pin_interrupt_configure>:
400d2864:	006136        	entry	a1, 48
400d2867:	190c      	movi.n	a9, 1
400d2869:	0199b0        	slli	a9, a9, 21
400d286c:	743030        	extui	a3, a3, 0, 8
400d286f:	180c      	movi.n	a8, 1
400d2871:	391497        	beq	a4, a9, 400d28ae <gpio_esp32_pin_interrupt_configure+0x4a>
400d2874:	0198a0        	slli	a9, a8, 22
400d2877:	159497        	bne	a4, a9, 400d2890 <gpio_esp32_pin_interrupt_configure+0x2c>
400d287a:	014870        	slli	a4, a8, 25
400d287d:	331547        	beq	a5, a4, 400d28b4 <gpio_esp32_pin_interrupt_configure+0x50>
400d2880:	018860        	slli	a8, a8, 26
400d2883:	a96c      	movi.n	a9, -22
400d2885:	021587        	beq	a5, a8, 400d288b <gpio_esp32_pin_interrupt_configure+0x27>
400d2888:	003a06        	j	400d2974 <gpio_esp32_pin_interrupt_configure+0x110>
400d288b:	000a86        	j	400d28b9 <gpio_esp32_pin_interrupt_configure+0x55>
400d288e:	00          	.byte 00
400d288f:	00          	.byte 00
400d2890:	014860        	slli	a4, a8, 26
400d2893:	291547        	beq	a5, a4, 400d28c0 <gpio_esp32_pin_interrupt_configure+0x5c>
400d2896:	390c      	movi.n	a9, 3
400d2898:	019970        	slli	a9, a9, 25
400d289b:	1f1597        	beq	a5, a9, 400d28be <gpio_esp32_pin_interrupt_configure+0x5a>
400d289e:	018870        	slli	a8, a8, 25
400d28a1:	a96c      	movi.n	a9, -22
400d28a3:	021587        	beq	a5, a8, 400d28a9 <gpio_esp32_pin_interrupt_configure+0x45>
400d28a6:	003286        	j	400d2974 <gpio_esp32_pin_interrupt_configure+0x110>
400d28a9:	280c      	movi.n	a8, 2
400d28ab:	000446        	j	400d28c0 <gpio_esp32_pin_interrupt_configure+0x5c>
400d28ae:	080c      	movi.n	a8, 0
400d28b0:	000306        	j	400d28c0 <gpio_esp32_pin_interrupt_configure+0x5c>
400d28b3:	00          	.byte 00
400d28b4:	480c      	movi.n	a8, 4
400d28b6:	000186        	j	400d28c0 <gpio_esp32_pin_interrupt_configure+0x5c>
400d28b9:	580c      	movi.n	a8, 5
400d28bb:	000046        	j	400d28c0 <gpio_esp32_pin_interrupt_configure+0x5c>
400d28be:	380c      	movi.n	a8, 3
400d28c0:	12c8      	l32i.n	a12, a2, 4
400d28c2:	3c58      	l32i.n	a5, a12, 12
400d28c4:	0063b0        	rsil	a11, 3
400d28c7:	3c48      	l32i.n	a4, a12, 12
400d28c9:	190c      	movi.n	a9, 1
400d28cb:	1ca8      	l32i.n	a10, a12, 4
400d28cd:	401300        	ssl	a3
400d28d0:	a19900        	sll	a9, a9
400d28d3:	94cc      	bnez.n	a4, 400d28e0 <gpio_esp32_pin_interrupt_configure+0x7c>
400d28d5:	0020c0        	memw
400d28d8:	136a92        	s32i	a9, a10, 76
400d28db:	000806        	j	400d28ff <gpio_esp32_pin_interrupt_configure+0x9b>
400d28de:	00          	.byte 00
400d28df:	00          	.byte 00
400d28e0:	0020c0        	memw
400d28e3:	162a42        	l32i	a4, a10, 88
400d28e6:	749090        	extui	a9, a9, 0, 8
400d28e9:	0020c0        	memw
400d28ec:	0149      	s32i.n	a4, a1, 0
400d28ee:	0020c0        	memw
400d28f1:	004192        	s8i	a9, a1, 0
400d28f4:	0020c0        	memw
400d28f7:	0148      	l32i.n	a4, a1, 0
400d28f9:	0020c0        	memw
400d28fc:	166a42        	s32i	a4, a10, 88
400d28ff:	f41c      	movi.n	a4, 31
400d2901:	1cd8      	l32i.n	a13, a12, 4
400d2903:	1e0c      	movi.n	a14, 1
400d2905:	01b437        	bgeu	a4, a3, 400d290a <gpio_esp32_pin_interrupt_configure+0xa6>
400d2908:	0e0c      	movi.n	a14, 0
400d290a:	550b      	addi.n	a5, a5, -1
400d290c:	1a0c      	movi.n	a10, 1
400d290e:	090c      	movi.n	a9, 0
400d2910:	839a50        	moveqz	a9, a10, a5
400d2913:	1099e0        	and	a9, a9, a14
400d2916:	1199b0        	slli	a9, a9, 5
400d2919:	993a      	add.n	a9, a9, a3
400d291b:	20c992        	addi	a9, a9, 32
400d291e:	1149e0        	slli	a4, a9, 2
400d2921:	a099d0        	addx4	a9, a9, a13
400d2924:	0020c0        	memw
400d2927:	2938      	l32i.n	a3, a9, 8
400d2929:	7fac52        	movi	a5, 0xfffffc7f
400d292c:	118890        	slli	a8, a8, 7
400d292f:	103350        	and	a3, a3, a5
400d2932:	203380        	or	a3, a3, a8
400d2935:	0020c0        	memw
400d2938:	2939      	s32i.n	a3, a9, 8
400d293a:	1c88      	l32i.n	a8, a12, 4
400d293c:	03f530        	rsr.misc1	a3
400d293f:	100332        	l8ui	a3, a3, 16
400d2942:	f67151        	l32r	a5, 400d0308 <_image_irom_vaddr+0x2e8> (fffc1fff <_rtc_bss_end+0xaffc1fff>)
400d2945:	884a      	add.n	a8, a8, a4
400d2947:	e3cc      	bnez.n	a3, 400d2959 <gpio_esp32_pin_interrupt_configure+0xf5>
400d2949:	0020c0        	memw
400d294c:	2838      	l32i.n	a3, a8, 8
400d294e:	11aa10        	slli	a10, a10, 15
400d2951:	103350        	and	a3, a3, a5
400d2954:	000306        	j	400d2964 <gpio_esp32_pin_interrupt_configure+0x100>
400d2957:	00          	.byte 00
400d2958:	00          	.byte 00
400d2959:	0020c0        	memw
400d295c:	2838      	l32i.n	a3, a8, 8
400d295e:	11aa30        	slli	a10, a10, 13
400d2961:	103350        	and	a3, a3, a5
400d2964:	20a3a0        	or	a10, a3, a10
400d2967:	0020c0        	memw
400d296a:	28a9      	s32i.n	a10, a8, 8
400d296c:	13e6b0        	wsr.ps	a11
400d296f:	002010        	rsync
400d2972:	090c      	movi.n	a9, 0
400d2974:	092d      	mov.n	a2, a9
400d2976:	f01d      	retw.n

400d2978 <gpio_esp32_init>:
400d2978:	004136        	entry	a1, 32
400d297b:	f66431        	l32r	a3, 400d030c <_image_irom_vaddr+0x2ec> (3ffb15fb <isr_connected$0>)
400d297e:	02dd      	mov.n	a13, a2
400d2980:	0003b2        	l8ui	a11, a3, 0
400d2983:	ebcc      	bnez.n	a11, 400d2995 <gpio_esp32_init+0x1d>
400d2985:	f662c1        	l32r	a12, 400d0310 <_image_irom_vaddr+0x2f0> (40080760 <gpio_esp32_isr>)
400d2988:	0bed      	mov.n	a14, a11
400d298a:	16a0a2        	movi	a10, 22
400d298d:	ffbf65        	call8	400d2584 <esp_intr_alloc>
400d2990:	180c      	movi.n	a8, 1
400d2992:	004382        	s8i	a8, a3, 0
400d2995:	020c      	movi.n	a2, 0
400d2997:	f01d      	retw.n
400d2999:	000000        	ill

400d299c <gpio_esp32_config>:
400d299c:	006136        	entry	a1, 48
400d299f:	74b030        	extui	a11, a3, 0, 8
400d29a2:	1238      	l32i.n	a3, a2, 4
400d29a4:	070c      	movi.n	a7, 0
400d29a6:	3368      	l32i.n	a6, a3, 12
400d29a8:	120c      	movi.n	a2, 1
400d29aa:	660b      	addi.n	a6, a6, -1
400d29ac:	075d      	mov.n	a5, a7
400d29ae:	835260        	moveqz	a5, a2, a6
400d29b1:	f61c      	movi.n	a6, 31
400d29b3:	02b6b7        	bgeu	a6, a11, 400d29b9 <gpio_esp32_config+0x1d>
400d29b6:	202770        	or	a2, a7, a7
400d29b9:	105520        	and	a5, a5, a2
400d29bc:	f65661        	l32r	a6, 400d0314 <_image_irom_vaddr+0x2f4> (effffff <CONFIG_SYS_CLOCK_HW_CYCLES_PER_SEC+0xb1e3ff>)
400d29bf:	1155b0        	slli	a5, a5, 5
400d29c2:	55ba      	add.n	a5, a5, a11
400d29c4:	a26c      	movi.n	a2, -22
400d29c6:	02d6b7        	bbs	a6, a11, 400d29cc <gpio_esp32_config+0x30>
400d29c9:	00c3c6        	j	400d2cdc <gpio_esp32_config+0x340>
400d29cc:	006360        	rsil	a6, 3
400d29cf:	722c      	movi.n	a2, 39
400d29d1:	02b257        	bgeu	a2, a5, 400d29d7 <gpio_esp32_config+0x3b>
400d29d4:	005c86        	j	400d2b4a <gpio_esp32_config+0x1ae>
400d29d7:	f65021        	l32r	a2, 400d0318 <_image_irom_vaddr+0x2f8> (3f4004dc <rtc_io_num_map>)
400d29da:	090c      	movi.n	a9, 0
400d29dc:	a02520        	addx4	a2, a5, a2
400d29df:	02a8      	l32i.n	a10, a2, 0
400d29e1:	1175e0        	slli	a7, a5, 2
400d29e4:	202a97        	blt	a10, a9, 400d2a08 <gpio_esp32_config+0x6c>
400d29e7:	f64781        	l32r	a8, 400d0304 <_image_irom_vaddr+0x2e4> (3f4000ec <rtc_io_desc>)
400d29ea:	f02aa0        	subx8	a2, a10, a10
400d29ed:	b02280        	addx8	a2, a2, a8
400d29f0:	0288      	l32i.n	a8, a2, 0
400d29f2:	12c8      	l32i.n	a12, a2, 4
400d29f4:	0020c0        	memw
400d29f7:	0898      	l32i.n	a9, a8, 0
400d29f9:	f27c      	movi.n	a2, -1
400d29fb:	3022c0        	xor	a2, a2, a12
400d29fe:	102290        	and	a2, a2, a9
400d2a01:	0020c0        	memw
400d2a04:	0829      	s32i.n	a2, a8, 0
400d2a06:	190c      	movi.n	a9, 1
400d2a08:	f64521        	l32r	a2, 400d031c <_image_irom_vaddr+0x2fc> (3f40004c <GPIO_PIN_MUX_REG>)
400d2a0b:	f5fed1        	l32r	a13, 400d0204 <_image_irom_vaddr+0x1e4> (ffff8fff <_rtc_bss_end+0xafff8fff>)
400d2a0e:	827a      	add.n	a8, a2, a7
400d2a10:	0888      	l32i.n	a8, a8, 0
400d2a12:	0020c0        	memw
400d2a15:	08c8      	l32i.n	a12, a8, 0
400d2a17:	10ccd0        	and	a12, a12, a13
400d2a1a:	1d0c      	movi.n	a13, 1
400d2a1c:	11dd30        	slli	a13, a13, 13
400d2a1f:	20ccd0        	or	a12, a12, a13
400d2a22:	0020c0        	memw
400d2a25:	08c9      	s32i.n	a12, a8, 0
400d2a27:	336447        	bbci	a4, 4, 400d2a5e <gpio_esp32_config+0xc2>
400d2a2a:	a9cc      	bnez.n	a9, 400d2a38 <gpio_esp32_config+0x9c>
400d2a2c:	0020c0        	memw
400d2a2f:	08c8      	l32i.n	a12, a8, 0
400d2a31:	00a1d2        	movi	a13, 0x100
400d2a34:	0006c6        	j	400d2a53 <gpio_esp32_config+0xb7>
400d2a37:	00          	.byte 00
400d2a38:	f633c1        	l32r	a12, 400d0304 <_image_irom_vaddr+0x2e4> (3f4000ec <rtc_io_desc>)
400d2a3b:	f08aa0        	subx8	a8, a10, a10
400d2a3e:	b088c0        	addx8	a8, a8, a12
400d2a41:	48c8      	l32i.n	a12, a8, 16
400d2a43:	5ccc      	bnez.n	a12, 400d2a4c <gpio_esp32_config+0xb0>
400d2a45:	7aaf22        	movi	a2, -134
400d2a48:	00a286        	j	400d2cd6 <gpio_esp32_config+0x33a>
400d2a4b:	00          	.byte 00
400d2a4c:	0888      	l32i.n	a8, a8, 0
400d2a4e:	0020c0        	memw
400d2a51:	08d8      	l32i.n	a13, a8, 0
400d2a53:	20ccd0        	or	a12, a12, a13
400d2a56:	0020c0        	memw
400d2a59:	08c9      	s32i.n	a12, a8, 0
400d2a5b:	000c86        	j	400d2a91 <gpio_esp32_config+0xf5>
400d2a5e:	e9cc      	bnez.n	a9, 400d2a70 <gpio_esp32_config+0xd4>
400d2a60:	0020c0        	memw
400d2a63:	08c8      	l32i.n	a12, a8, 0
400d2a65:	ffaed2        	movi	a13, 0xfffffeff
400d2a68:	10ccd0        	and	a12, a12, a13
400d2a6b:	fff9c6        	j	400d2a56 <gpio_esp32_config+0xba>
400d2a6e:	00          	.byte 00
400d2a6f:	00          	.byte 00
400d2a70:	f625c1        	l32r	a12, 400d0304 <_image_irom_vaddr+0x2e4> (3f4000ec <rtc_io_desc>)
400d2a73:	f08aa0        	subx8	a8, a10, a10
400d2a76:	b088c0        	addx8	a8, a8, a12
400d2a79:	48d8      	l32i.n	a13, a8, 16
400d2a7b:	2d9c      	beqz.n	a13, 400d2a91 <gpio_esp32_config+0xf5>
400d2a7d:	08c8      	l32i.n	a12, a8, 0
400d2a7f:	f87c      	movi.n	a8, -1
400d2a81:	0020c0        	memw
400d2a84:	0ce8      	l32i.n	a14, a12, 0
400d2a86:	3088d0        	xor	a8, a8, a13
400d2a89:	1088e0        	and	a8, a8, a14
400d2a8c:	0020c0        	memw
400d2a8f:	0c89      	s32i.n	a8, a12, 0
400d2a91:	176417        	bbci	a4, 1, 400d2aac <gpio_esp32_config+0x110>
400d2a94:	4d0c      	movi.n	a13, 4
400d2a96:	ab04d7        	bnone	a4, a13, 400d2a45 <gpio_esp32_config+0xa9>
400d2a99:	13c8      	l32i.n	a12, a3, 4
400d2a9b:	20c582        	addi	a8, a5, 32
400d2a9e:	a088c0        	addx4	a8, a8, a12
400d2aa1:	0020c0        	memw
400d2aa4:	28c8      	l32i.n	a12, a8, 8
400d2aa6:	20ccd0        	or	a12, a12, a13
400d2aa9:	000446        	j	400d2abe <gpio_esp32_config+0x122>
400d2aac:	13c8      	l32i.n	a12, a3, 4
400d2aae:	20c582        	addi	a8, a5, 32
400d2ab1:	a088c0        	addx4	a8, a8, a12
400d2ab4:	0020c0        	memw
400d2ab7:	28c8      	l32i.n	a12, a8, 8
400d2ab9:	bd7c      	movi.n	a13, -5
400d2abb:	10ccd0        	and	a12, a12, a13
400d2abe:	0020c0        	memw
400d2ac1:	28c9      	s32i.n	a12, a8, 8
400d2ac3:	356457        	bbci	a4, 5, 400d2afc <gpio_esp32_config+0x160>
400d2ac6:	29dc      	bnez.n	a9, 400d2adc <gpio_esp32_config+0x140>
400d2ac8:	827a      	add.n	a8, a2, a7
400d2aca:	08c8      	l32i.n	a12, a8, 0
400d2acc:	80a0d2        	movi	a13, 128
400d2acf:	0020c0        	memw
400d2ad2:	0c88      	l32i.n	a8, a12, 0
400d2ad4:	2088d0        	or	a8, a8, a13
400d2ad7:	001446        	j	400d2b2c <gpio_esp32_config+0x190>
400d2ada:	00          	.byte 00
400d2adb:	00          	.byte 00
400d2adc:	f60ac1        	l32r	a12, 400d0304 <_image_irom_vaddr+0x2e4> (3f4000ec <rtc_io_desc>)
400d2adf:	f08aa0        	subx8	a8, a10, a10
400d2ae2:	b088c0        	addx8	a8, a8, a12
400d2ae5:	58c8      	l32i.n	a12, a8, 20
400d2ae7:	f5ac16        	beqz	a12, 400d2a45 <gpio_esp32_config+0xa9>
400d2aea:	0888      	l32i.n	a8, a8, 0
400d2aec:	0020c0        	memw
400d2aef:	08d8      	l32i.n	a13, a8, 0
400d2af1:	20ccd0        	or	a12, a12, a13
400d2af4:	0020c0        	memw
400d2af7:	08c9      	s32i.n	a12, a8, 0
400d2af9:	000d06        	j	400d2b31 <gpio_esp32_config+0x195>
400d2afc:	09dc      	bnez.n	a9, 400d2b10 <gpio_esp32_config+0x174>
400d2afe:	827a      	add.n	a8, a2, a7
400d2b00:	08c8      	l32i.n	a12, a8, 0
400d2b02:	7fafd2        	movi	a13, -129
400d2b05:	0020c0        	memw
400d2b08:	0c88      	l32i.n	a8, a12, 0
400d2b0a:	1088d0        	and	a8, a8, a13
400d2b0d:	0006c6        	j	400d2b2c <gpio_esp32_config+0x190>
400d2b10:	f5fdc1        	l32r	a12, 400d0304 <_image_irom_vaddr+0x2e4> (3f4000ec <rtc_io_desc>)
400d2b13:	f08aa0        	subx8	a8, a10, a10
400d2b16:	b088c0        	addx8	a8, a8, a12
400d2b19:	58d8      	l32i.n	a13, a8, 20
400d2b1b:	2d9c      	beqz.n	a13, 400d2b31 <gpio_esp32_config+0x195>
400d2b1d:	08c8      	l32i.n	a12, a8, 0
400d2b1f:	f87c      	movi.n	a8, -1
400d2b21:	0020c0        	memw
400d2b24:	0ce8      	l32i.n	a14, a12, 0
400d2b26:	3088d0        	xor	a8, a8, a13
400d2b29:	1088e0        	and	a8, a8, a14
400d2b2c:	0020c0        	memw
400d2b2f:	0c89      	s32i.n	a8, a12, 0
400d2b31:	180c      	movi.n	a8, 1
400d2b33:	02f417        	bbsi	a4, 17, 400d2b39 <gpio_esp32_config+0x19d>
400d2b36:	004c06        	j	400d2c6a <gpio_esp32_config+0x2ce>
400d2b39:	f5f681        	l32r	a8, 400d0314 <_image_irom_vaddr+0x2f4> (effffff <CONFIG_SYS_CLOCK_HW_CYCLES_PER_SEC+0xb1e3ff>)
400d2b3c:	0a58b7        	bbc	a8, a11, 400d2b4a <gpio_esp32_config+0x1ae>
400d2b3f:	00a682        	movi	a8, 0x600
400d2b42:	10b480        	and	a11, a4, a8
400d2b45:	7b8c      	beqz.n	a11, 400d2b50 <gpio_esp32_config+0x1b4>
400d2b47:	2b1b87        	beq	a11, a8, 400d2b76 <gpio_esp32_config+0x1da>
400d2b4a:	a26c      	movi.n	a2, -22
400d2b4c:	006186        	j	400d2cd6 <gpio_esp32_config+0x33a>
400d2b4f:	00          	.byte 00
400d2b50:	d9dc      	bnez.n	a9, 400d2b71 <gpio_esp32_config+0x1d5>
400d2b52:	827a      	add.n	a8, a2, a7
400d2b54:	08a8      	l32i.n	a10, a8, 0
400d2b56:	f5f291        	l32r	a9, 400d0320 <_image_irom_vaddr+0x300> (fffff3ff <_rtc_bss_end+0xaffff3ff>)
400d2b59:	0020c0        	memw
400d2b5c:	0a88      	l32i.n	a8, a10, 0
400d2b5e:	108890        	and	a8, a8, a9
400d2b61:	390c      	movi.n	a9, 3
400d2b63:	119960        	slli	a9, a9, 10
400d2b66:	208890        	or	a8, a8, a9
400d2b69:	0020c0        	memw
400d2b6c:	0a89      	s32i.n	a8, a10, 0
400d2b6e:	000906        	j	400d2b96 <gpio_esp32_config+0x1fa>
400d2b71:	3b0c      	movi.n	a11, 3
400d2b73:	000706        	j	400d2b93 <gpio_esp32_config+0x1f7>
400d2b76:	69dc      	bnez.n	a9, 400d2b90 <gpio_esp32_config+0x1f4>
400d2b78:	827a      	add.n	a8, a2, a7
400d2b7a:	0898      	l32i.n	a9, a8, 0
400d2b7c:	f5e9a1        	l32r	a10, 400d0320 <_image_irom_vaddr+0x300> (fffff3ff <_rtc_bss_end+0xaffff3ff>)
400d2b7f:	0020c0        	memw
400d2b82:	0988      	l32i.n	a8, a9, 0
400d2b84:	1088a0        	and	a8, a8, a10
400d2b87:	0020c0        	memw
400d2b8a:	0989      	s32i.n	a8, a9, 0
400d2b8c:	000186        	j	400d2b96 <gpio_esp32_config+0x1fa>
400d2b8f:	00          	.byte 00
400d2b90:	00a0b2        	movi	a11, 0
400d2b93:	ffc965        	call8	400d2828 <rtcio_ll_set_drive_capability>
400d2b96:	1fa082        	movi	a8, 31
400d2b99:	f5e291        	l32r	a9, 400d0324 <_image_irom_vaddr+0x304> (3ff44000 <GPIO>)
400d2b9c:	103857        	bltu	a8, a5, 400d2bb0 <gpio_esp32_config+0x214>
400d2b9f:	01a082        	movi	a8, 1
400d2ba2:	401500        	ssl	a5
400d2ba5:	a18800        	sll	a8, a8
400d2ba8:	0020c0        	memw
400d2bab:	9989      	s32i.n	a8, a9, 36
400d2bad:	000906        	j	400d2bd5 <gpio_esp32_config+0x239>
400d2bb0:	0020c0        	memw
400d2bb3:	c988      	l32i.n	a8, a9, 48
400d2bb5:	0020c0        	memw
400d2bb8:	3189      	s32i.n	a8, a1, 12
400d2bba:	180c      	movi.n	a8, 1
400d2bbc:	401500        	ssl	a5
400d2bbf:	a18800        	sll	a8, a8
400d2bc2:	748080        	extui	a8, a8, 0, 8
400d2bc5:	0020c0        	memw
400d2bc8:	0c4182        	s8i	a8, a1, 12
400d2bcb:	0020c0        	memw
400d2bce:	3188      	l32i.n	a8, a1, 12
400d2bd0:	0020c0        	memw
400d2bd3:	c989      	s32i.n	a8, a9, 48
400d2bd5:	0d0c      	movi.n	a13, 0
400d2bd7:	0dcd      	mov.n	a12, a13
400d2bd9:	00a1b2        	movi	a11, 0x100
400d2bdc:	05ad      	mov.n	a10, a5
400d2bde:	f5d381        	l32r	a8, 400d032c <_image_irom_vaddr+0x30c> (40009f0c <esp_rom_gpio_connect_out_signal>)
400d2be1:	0008e0        	callx8	a8
400d2be4:	180c      	movi.n	a8, 1
400d2be6:	3e7437        	bbci	a4, 19, 400d2c28 <gpio_esp32_config+0x28c>
400d2be9:	f91c      	movi.n	a9, 31
400d2beb:	1338      	l32i.n	a3, a3, 4
400d2bed:	0f3957        	bltu	a9, a5, 400d2c00 <gpio_esp32_config+0x264>
400d2bf0:	401500        	ssl	a5
400d2bf3:	a18800        	sll	a8, a8
400d2bf6:	0020c0        	memw
400d2bf9:	2389      	s32i.n	a8, a3, 8
400d2bfb:	002d46        	j	400d2cb4 <gpio_esp32_config+0x318>
400d2bfe:	00          	.byte 00
400d2bff:	00          	.byte 00
400d2c00:	0020c0        	memw
400d2c03:	5398      	l32i.n	a9, a3, 20
400d2c05:	401500        	ssl	a5
400d2c08:	a18800        	sll	a8, a8
400d2c0b:	0020c0        	memw
400d2c0e:	2199      	s32i.n	a9, a1, 8
400d2c10:	748080        	extui	a8, a8, 0, 8
400d2c13:	0020c0        	memw
400d2c16:	084182        	s8i	a8, a1, 8
400d2c19:	0020c0        	memw
400d2c1c:	2158      	l32i.n	a5, a1, 8
400d2c1e:	0020c0        	memw
400d2c21:	5359      	s32i.n	a5, a3, 20
400d2c23:	002346        	j	400d2cb4 <gpio_esp32_config+0x318>
400d2c26:	00          	.byte 00
400d2c27:	00          	.byte 00
400d2c28:	02f427        	bbsi	a4, 18, 400d2c2e <gpio_esp32_config+0x292>
400d2c2b:	002146        	j	400d2cb4 <gpio_esp32_config+0x318>
400d2c2e:	f91c      	movi.n	a9, 31
400d2c30:	1338      	l32i.n	a3, a3, 4
400d2c32:	0e3957        	bltu	a9, a5, 400d2c44 <gpio_esp32_config+0x2a8>
400d2c35:	401500        	ssl	a5
400d2c38:	a18800        	sll	a8, a8
400d2c3b:	0020c0        	memw
400d2c3e:	3389      	s32i.n	a8, a3, 12
400d2c40:	001c06        	j	400d2cb4 <gpio_esp32_config+0x318>
400d2c43:	00          	.byte 00
400d2c44:	0020c0        	memw
400d2c47:	6398      	l32i.n	a9, a3, 24
400d2c49:	401500        	ssl	a5
400d2c4c:	a18800        	sll	a8, a8
400d2c4f:	0020c0        	memw
400d2c52:	1199      	s32i.n	a9, a1, 4
400d2c54:	748080        	extui	a8, a8, 0, 8
400d2c57:	0020c0        	memw
400d2c5a:	044182        	s8i	a8, a1, 4
400d2c5d:	0020c0        	memw
400d2c60:	1158      	l32i.n	a5, a1, 4
400d2c62:	0020c0        	memw
400d2c65:	6359      	s32i.n	a5, a3, 24
400d2c67:	001246        	j	400d2cb4 <gpio_esp32_config+0x318>
400d2c6a:	f91c      	movi.n	a9, 31
400d2c6c:	f5ae31        	l32r	a3, 400d0324 <_image_irom_vaddr+0x304> (3ff44000 <GPIO>)
400d2c6f:	0e3957        	bltu	a9, a5, 400d2c81 <gpio_esp32_config+0x2e5>
400d2c72:	401500        	ssl	a5
400d2c75:	a18800        	sll	a8, a8
400d2c78:	0020c0        	memw
400d2c7b:	a389      	s32i.n	a8, a3, 40
400d2c7d:	0008c6        	j	400d2ca4 <gpio_esp32_config+0x308>
400d2c80:	00          	.byte 00
400d2c81:	0020c0        	memw
400d2c84:	d398      	l32i.n	a9, a3, 52
400d2c86:	401500        	ssl	a5
400d2c89:	a18800        	sll	a8, a8
400d2c8c:	0020c0        	memw
400d2c8f:	0199      	s32i.n	a9, a1, 0
400d2c91:	748080        	extui	a8, a8, 0, 8
400d2c94:	0020c0        	memw
400d2c97:	004182        	s8i	a8, a1, 0
400d2c9a:	0020c0        	memw
400d2c9d:	0188      	l32i.n	a8, a1, 0
400d2c9f:	0020c0        	memw
400d2ca2:	d389      	s32i.n	a8, a3, 52
400d2ca4:	f5a131        	l32r	a3, 400d0328 <_image_irom_vaddr+0x308> (ffd114c <CONFIG_SYS_CLOCK_HW_CYCLES_PER_SEC+0x1aef54c>)
400d2ca7:	553a      	add.n	a5, a5, a3
400d2ca9:	1155e0        	slli	a5, a5, 2
400d2cac:	00a132        	movi	a3, 0x100
400d2caf:	0020c0        	memw
400d2cb2:	0539      	s32i.n	a3, a5, 0
400d2cb4:	227a      	add.n	a2, a2, a7
400d2cb6:	0228      	l32i.n	a2, a2, 0
400d2cb8:	0020c0        	memw
400d2cbb:	0238      	l32i.n	a3, a2, 0
400d2cbd:	087407        	bbci	a4, 16, 400d2cc9 <gpio_esp32_config+0x32d>
400d2cc0:	00a242        	movi	a4, 0x200
400d2cc3:	203340        	or	a3, a3, a4
400d2cc6:	000146        	j	400d2ccf <gpio_esp32_config+0x333>
400d2cc9:	ffad42        	movi	a4, 0xfffffdff
400d2ccc:	103340        	and	a3, a3, a4
400d2ccf:	0020c0        	memw
400d2cd2:	0239      	s32i.n	a3, a2, 0
400d2cd4:	020c      	movi.n	a2, 0
400d2cd6:	13e660        	wsr.ps	a6
400d2cd9:	002010        	rsync
400d2cdc:	f01d      	retw.n
	...

400d2ce0 <pinctrl_configure_pins>:
400d2ce0:	008136        	entry	a1, 64
400d2ce3:	743030        	extui	a3, a3, 0, 8
400d2ce6:	b03320        	addx8	a3, a3, a2
400d2ce9:	5139      	s32i.n	a3, a1, 20
400d2ceb:	052c      	movi.n	a5, 32
400d2ced:	00f886        	j	400d30d3 <pinctrl_configure_pins+0x3f3>
400d2cf0:	00          	.byte 00
400d2cf1:	00          	.byte 00
400d2cf2:	0298      	l32i.n	a9, a2, 0
400d2cf4:	0b0c      	movi.n	a11, 0
400d2cf6:	f58ec1        	l32r	a12, 400d0330 <_image_irom_vaddr+0x310> (3f400960 <esp32_gpio_ports_addrs>)
400d2cf9:	544090        	extui	a4, a9, 0, 6
400d2cfc:	846690        	extui	a6, a9, 6, 9
400d2cff:	847f90        	extui	a7, a9, 15, 9
400d2d02:	1a0c      	movi.n	a10, 1
400d2d04:	109950        	and	a9, a9, a5
400d2d07:	0b3d      	mov.n	a3, a11
400d2d09:	933a90        	movnez	a3, a10, a9
400d2d0c:	a033c0        	addx4	a3, a3, a12
400d2d0f:	0338      	l32i.n	a3, a3, 0
400d2d11:	1288      	l32i.n	a8, a2, 4
400d2d13:	0293b7        	bne	a3, a11, 400d2d19 <pinctrl_configure_pins+0x39>
400d2d16:	00f186        	j	400d30e0 <pinctrl_configure_pins+0x400>
400d2d19:	143080        	extui	a3, a8, 0, 2
400d2d1c:	082326        	beqi	a3, 2, 400d2d28 <pinctrl_configure_pins+0x48>
400d2d1f:	fdc332        	addi	a3, a3, -3
400d2d22:	93ab30        	movnez	a10, a11, a3
400d2d25:	113ae0        	slli	a3, a10, 2
400d2d28:	14a280        	extui	a10, a8, 2, 2
400d2d2b:	051a26        	beqi	a10, 1, 400d2d34 <pinctrl_configure_pins+0x54>
400d2d2e:	082a26        	beqi	a10, 2, 400d2d3a <pinctrl_configure_pins+0x5a>
400d2d31:	000286        	j	400d2d3f <pinctrl_configure_pins+0x5f>
400d2d34:	8a0c      	movi.n	a10, 8
400d2d36:	000086        	j	400d2d3c <pinctrl_configure_pins+0x5c>
400d2d39:	00          	.byte 00
400d2d3a:	0a1c      	movi.n	a10, 16
400d2d3c:	2033a0        	or	a3, a3, a10
400d2d3f:	01aeb2        	movi	a11, 0xfffffe01
400d2d42:	0c0c      	movi.n	a12, 0
400d2d44:	e6ba      	add.n	a14, a6, a11
400d2d46:	1a0c      	movi.n	a10, 1
400d2d48:	0cdd      	mov.n	a13, a12
400d2d4a:	b7ba      	add.n	a11, a7, a11
400d2d4c:	83dae0        	moveqz	a13, a10, a14
400d2d4f:	93acb0        	movnez	a10, a12, a11
400d2d52:	10dda0        	and	a13, a13, a10
400d2d55:	021dc7        	beq	a13, a12, 400d2d5b <pinctrl_configure_pins+0x7b>
400d2d58:	00e246        	j	400d30e5 <pinctrl_configure_pins+0x405>
400d2d5b:	ffa1a2        	movi	a10, 0x1ff
400d2d5e:	0216a7        	beq	a6, a10, 400d2d64 <pinctrl_configure_pins+0x84>
400d2d61:	203350        	or	a3, a3, a5
400d2d64:	0417a7        	beq	a7, a10, 400d2d6c <pinctrl_configure_pins+0x8c>
400d2d67:	0a4c      	movi.n	a10, 64
400d2d69:	2033a0        	or	a3, a3, a10
400d2d6c:	14a480        	extui	a10, a8, 4, 2
400d2d6f:	051a26        	beqi	a10, 1, 400d2d78 <pinctrl_configure_pins+0x98>
400d2d72:	0a2a26        	beqi	a10, 2, 400d2d80 <pinctrl_configure_pins+0xa0>
400d2d75:	000346        	j	400d2d86 <pinctrl_configure_pins+0xa6>
400d2d78:	80a0a2        	movi	a10, 128
400d2d7b:	000106        	j	400d2d83 <pinctrl_configure_pins+0xa3>
400d2d7e:	00          	.byte 00
400d2d7f:	00          	.byte 00
400d2d80:	00a1a2        	movi	a10, 0x100
400d2d83:	2033a0        	or	a3, a3, a10
400d2d86:	148680        	extui	a8, a8, 6, 2
400d2d89:	071826        	beqi	a8, 1, 400d2d94 <pinctrl_configure_pins+0xb4>
400d2d8c:	0c2826        	beqi	a8, 2, 400d2d9c <pinctrl_configure_pins+0xbc>
400d2d8f:	0003c6        	j	400d2da2 <pinctrl_configure_pins+0xc2>
400d2d92:	00          	.byte 00
400d2d93:	00          	.byte 00
400d2d94:	00a282        	movi	a8, 0x200
400d2d97:	000106        	j	400d2d9f <pinctrl_configure_pins+0xbf>
400d2d9a:	00          	.byte 00
400d2d9b:	00          	.byte 00
400d2d9c:	00a482        	movi	a8, 0x400
400d2d9f:	203380        	or	a3, a3, a8
400d2da2:	80a082        	movi	a8, 128
400d2da5:	00a1a2        	movi	a10, 0x100
400d2da8:	10f380        	and	a15, a3, a8
400d2dab:	10a3a0        	and	a10, a3, a10
400d2dae:	bfac      	beqz.n	a15, 400d2ddd <pinctrl_configure_pins+0xfd>
400d2db0:	89dc      	bnez.n	a9, 400d2dcc <pinctrl_configure_pins+0xec>
400d2db2:	f56081        	l32r	a8, 400d0334 <_image_irom_vaddr+0x314> (3ff44000 <GPIO>)
400d2db5:	0020c0        	memw
400d2db8:	2849      	s32i.n	a4, a8, 8
400d2dba:	3acc      	bnez.n	a10, 400d2dc1 <pinctrl_configure_pins+0xe1>
400d2dbc:	0a0c      	movi.n	a10, 0
400d2dbe:	000b46        	j	400d2def <pinctrl_configure_pins+0x10f>
400d2dc1:	f55c81        	l32r	a8, 400d0334 <_image_irom_vaddr+0x314> (3ff44000 <GPIO>)
400d2dc4:	0020c0        	memw
400d2dc7:	3849      	s32i.n	a4, a8, 12
400d2dc9:	000886        	j	400d2def <pinctrl_configure_pins+0x10f>
400d2dcc:	f55bb1        	l32r	a11, 400d0338 <_image_irom_vaddr+0x318> (3ff44800 <GPIO+0x800>)
400d2dcf:	748040        	extui	a8, a4, 0, 8
400d2dd2:	0020c0        	memw
400d2dd5:	144b82        	s8i	a8, a11, 20
400d2dd8:	7acc      	bnez.n	a10, 400d2de3 <pinctrl_configure_pins+0x103>
400d2dda:	fff786        	j	400d2dbc <pinctrl_configure_pins+0xdc>
400d2ddd:	fdba16        	beqz	a10, 400d2dbc <pinctrl_configure_pins+0xdc>
400d2de0:	fdd916        	beqz	a9, 400d2dc1 <pinctrl_configure_pins+0xe1>
400d2de3:	f555b1        	l32r	a11, 400d0338 <_image_irom_vaddr+0x318> (3ff44800 <GPIO+0x800>)
400d2de6:	748040        	extui	a8, a4, 0, 8
400d2de9:	0020c0        	memw
400d2dec:	184b82        	s8i	a8, a11, 24
400d2def:	180c      	movi.n	a8, 1
400d2df1:	401400        	ssl	a4
400d2df4:	a1b800        	sll	a11, a8
400d2df7:	41b9      	s32i.n	a11, a1, 16
400d2df9:	41c8      	l32i.n	a12, a1, 16
400d2dfb:	f546e1        	l32r	a14, 400d0314 <_image_irom_vaddr+0x2f4> (effffff <CONFIG_SYS_CLOCK_HW_CYCLES_PER_SEC+0xb1e3ff>)
400d2dfe:	0b0c      	movi.n	a11, 0
400d2e00:	10ece0        	and	a14, a12, a14
400d2e03:	0bcd      	mov.n	a12, a11
400d2e05:	93c8e0        	movnez	a12, a8, a14
400d2e08:	27a0e2        	movi	a14, 39
400d2e0b:	01be47        	bgeu	a14, a4, 400d2e10 <pinctrl_configure_pins+0x130>
400d2e0e:	0b8d      	mov.n	a8, a11
400d2e10:	10cc80        	and	a12, a12, a8
400d2e13:	2a5c16        	beqz	a12, 400d30bc <pinctrl_configure_pins+0x3dc>
400d2e16:	f54081        	l32r	a8, 400d0318 <_image_irom_vaddr+0x2f8> (3f4004dc <rtc_io_num_map>)
400d2e19:	a08480        	addx4	a8, a4, a8
400d2e1c:	0888      	l32i.n	a8, a8, 0
400d2e1e:	02a896        	bltz	a8, 400d2e4c <pinctrl_configure_pins+0x16c>
400d2e21:	f538d1        	l32r	a13, 400d0304 <_image_irom_vaddr+0x2e4> (3f4000ec <rtc_io_desc>)
400d2e24:	f0b880        	subx8	a11, a8, a8
400d2e27:	b0bbd0        	addx8	a11, a11, a13
400d2e2a:	0bd8      	l32i.n	a13, a11, 0
400d2e2c:	1bb8      	l32i.n	a11, a11, 4
400d2e2e:	0020c0        	memw
400d2e31:	0de8      	l32i.n	a14, a13, 0
400d2e33:	61b9      	s32i.n	a11, a1, 24
400d2e35:	71e9      	s32i.n	a14, a1, 28
400d2e37:	61e8      	l32i.n	a14, a1, 24
400d2e39:	fb7c      	movi.n	a11, -1
400d2e3b:	30bbe0        	xor	a11, a11, a14
400d2e3e:	71e8      	l32i.n	a14, a1, 28
400d2e40:	10bbe0        	and	a11, a11, a14
400d2e43:	0020c0        	memw
400d2e46:	006db2        	s32i	a11, a13, 0
400d2e49:	20dcc0        	or	a13, a12, a12
400d2e4c:	f534b1        	l32r	a11, 400d031c <_image_irom_vaddr+0x2fc> (3f40004c <GPIO_PIN_MUX_REG>)
400d2e4f:	f4edc1        	l32r	a12, 400d0204 <_image_irom_vaddr+0x1e4> (ffff8fff <_rtc_bss_end+0xafff8fff>)
400d2e52:	a0b4b0        	addx4	a11, a4, a11
400d2e55:	0bb8      	l32i.n	a11, a11, 0
400d2e57:	0020c0        	memw
400d2e5a:	0be8      	l32i.n	a14, a11, 0
400d2e5c:	10cec0        	and	a12, a14, a12
400d2e5f:	1e0c      	movi.n	a14, 1
400d2e61:	11ee30        	slli	a14, a14, 13
400d2e64:	20cce0        	or	a12, a12, a14
400d2e67:	0020c0        	memw
400d2e6a:	0bc9      	s32i.n	a12, a11, 0
400d2e6c:	5d6317        	bbci	a3, 1, 400d2ecd <pinctrl_configure_pins+0x1ed>
400d2e6f:	9ddc      	bnez.n	a13, 400d2e8c <pinctrl_configure_pins+0x1ac>
400d2e71:	0020c0        	memw
400d2e74:	0b88      	l32i.n	a8, a11, 0
400d2e76:	7fafc2        	movi	a12, -129
400d2e79:	1088c0        	and	a8, a8, a12
400d2e7c:	0020c0        	memw
400d2e7f:	0b89      	s32i.n	a8, a11, 0
400d2e81:	0020c0        	memw
400d2e84:	0b88      	l32i.n	a8, a11, 0
400d2e86:	00a1c2        	movi	a12, 0x100
400d2e89:	001746        	j	400d2eea <pinctrl_configure_pins+0x20a>
400d2e8c:	f51ec1        	l32r	a12, 400d0304 <_image_irom_vaddr+0x2e4> (3f4000ec <rtc_io_desc>)
400d2e8f:	f0b880        	subx8	a11, a8, a8
400d2e92:	b0bbc0        	addx8	a11, a11, a12
400d2e95:	5bd8      	l32i.n	a13, a11, 20
400d2e97:	2d9c      	beqz.n	a13, 400d2ead <pinctrl_configure_pins+0x1cd>
400d2e99:	0bc8      	l32i.n	a12, a11, 0
400d2e9b:	fb7c      	movi.n	a11, -1
400d2e9d:	0020c0        	memw
400d2ea0:	0ce8      	l32i.n	a14, a12, 0
400d2ea2:	30bbd0        	xor	a11, a11, a13
400d2ea5:	10bbe0        	and	a11, a11, a14
400d2ea8:	0020c0        	memw
400d2eab:	0cb9      	s32i.n	a11, a12, 0
400d2ead:	f515b1        	l32r	a11, 400d0304 <_image_irom_vaddr+0x2e4> (3f4000ec <rtc_io_desc>)
400d2eb0:	f08880        	subx8	a8, a8, a8
400d2eb3:	b088b0        	addx8	a8, a8, a11
400d2eb6:	48b8      	l32i.n	a11, a8, 16
400d2eb8:	200b16        	beqz	a11, 400d30bc <pinctrl_configure_pins+0x3dc>
400d2ebb:	0888      	l32i.n	a8, a8, 0
400d2ebd:	0020c0        	memw
400d2ec0:	08c8      	l32i.n	a12, a8, 0
400d2ec2:	20bbc0        	or	a11, a11, a12
400d2ec5:	0020c0        	memw
400d2ec8:	08b9      	s32i.n	a11, a8, 0
400d2eca:	001786        	j	400d2f2c <pinctrl_configure_pins+0x24c>
400d2ecd:	5b6327        	bbci	a3, 2, 400d2f2c <pinctrl_configure_pins+0x24c>
400d2ed0:	dddc      	bnez.n	a13, 400d2ef1 <pinctrl_configure_pins+0x211>
400d2ed2:	0020c0        	memw
400d2ed5:	0b88      	l32i.n	a8, a11, 0
400d2ed7:	ffaec2        	movi	a12, 0xfffffeff
400d2eda:	1088c0        	and	a8, a8, a12
400d2edd:	0020c0        	memw
400d2ee0:	0b89      	s32i.n	a8, a11, 0
400d2ee2:	0020c0        	memw
400d2ee5:	0b88      	l32i.n	a8, a11, 0
400d2ee7:	80a0c2        	movi	a12, 128
400d2eea:	2088c0        	or	a8, a8, a12
400d2eed:	000d86        	j	400d2f27 <pinctrl_configure_pins+0x247>
400d2ef0:	00          	.byte 00
400d2ef1:	f504c1        	l32r	a12, 400d0304 <_image_irom_vaddr+0x2e4> (3f4000ec <rtc_io_desc>)
400d2ef4:	f0d880        	subx8	a13, a8, a8
400d2ef7:	b0ddc0        	addx8	a13, a13, a12
400d2efa:	5db8      	l32i.n	a11, a13, 20
400d2efc:	db8c      	beqz.n	a11, 400d2f0d <pinctrl_configure_pins+0x22d>
400d2efe:	0dd8      	l32i.n	a13, a13, 0
400d2f00:	0020c0        	memw
400d2f03:	0de8      	l32i.n	a14, a13, 0
400d2f05:	20bbe0        	or	a11, a11, a14
400d2f08:	0020c0        	memw
400d2f0b:	0db9      	s32i.n	a11, a13, 0
400d2f0d:	f08880        	subx8	a8, a8, a8
400d2f10:	b088c0        	addx8	a8, a8, a12
400d2f13:	48c8      	l32i.n	a12, a8, 16
400d2f15:	1a3c16        	beqz	a12, 400d30bc <pinctrl_configure_pins+0x3dc>
400d2f18:	08b8      	l32i.n	a11, a8, 0
400d2f1a:	f87c      	movi.n	a8, -1
400d2f1c:	0020c0        	memw
400d2f1f:	0bd8      	l32i.n	a13, a11, 0
400d2f21:	3088c0        	xor	a8, a8, a12
400d2f24:	1088d0        	and	a8, a8, a13
400d2f27:	0020c0        	memw
400d2f2a:	0b89      	s32i.n	a8, a11, 0
400d2f2c:	02e367        	bbsi	a3, 6, 400d2f32 <pinctrl_configure_pins+0x252>
400d2f2f:	004146        	j	400d3038 <pinctrl_configure_pins+0x358>
400d2f32:	f4f881        	l32r	a8, 400d0314 <_image_irom_vaddr+0x2f4> (effffff <CONFIG_SYS_CLOCK_HW_CYCLES_PER_SEC+0xb1e3ff>)
400d2f35:	41b8      	l32i.n	a11, a1, 16
400d2f37:	118b87        	bany	a11, a8, 400d2f4c <pinctrl_configure_pins+0x26c>
400d2f3a:	0d0c      	movi.n	a13, 0
400d2f3c:	0dcd      	mov.n	a12, a13
400d2f3e:	07bd      	mov.n	a11, a7
400d2f40:	04ad      	mov.n	a10, a4
400d2f42:	f4fa81        	l32r	a8, 400d032c <_image_irom_vaddr+0x30c> (40009f0c <esp_rom_gpio_connect_out_signal>)
400d2f45:	0008e0        	callx8	a8
400d2f48:	005d86        	j	400d30c2 <pinctrl_configure_pins+0x3e2>
400d2f4b:	00          	.byte 00
400d2f4c:	f4fab1        	l32r	a11, 400d0334 <_image_irom_vaddr+0x314> (3ff44000 <GPIO>)
400d2f4f:	20c482        	addi	a8, a4, 32
400d2f52:	a088b0        	addx4	a8, a8, a11
400d2f55:	0020c0        	memw
400d2f58:	28b8      	l32i.n	a11, a8, 8
400d2f5a:	076347        	bbci	a3, 4, 400d2f65 <pinctrl_configure_pins+0x285>
400d2f5d:	4c0c      	movi.n	a12, 4
400d2f5f:	20bbc0        	or	a11, a11, a12
400d2f62:	000106        	j	400d2f6a <pinctrl_configure_pins+0x28a>
400d2f65:	bc7c      	movi.n	a12, -5
400d2f67:	10bbc0        	and	a11, a11, a12
400d2f6a:	0020c0        	memw
400d2f6d:	28b9      	s32i.n	a11, a8, 8
400d2f6f:	f4edb1        	l32r	a11, 400d0324 <_image_irom_vaddr+0x304> (3ff44000 <GPIO>)
400d2f72:	180c      	movi.n	a8, 1
400d2f74:	8fbc      	beqz.n	a15, 400d2fb0 <pinctrl_configure_pins+0x2d0>
400d2f76:	f4efa1        	l32r	a10, 400d0334 <_image_irom_vaddr+0x314> (3ff44000 <GPIO>)
400d2f79:	c9cc      	bnez.n	a9, 400d2f89 <pinctrl_configure_pins+0x2a9>
400d2f7b:	401400        	ssl	a4
400d2f7e:	a18800        	sll	a8, a8
400d2f81:	0020c0        	memw
400d2f84:	2a89      	s32i.n	a8, a10, 8
400d2f86:	001906        	j	400d2fee <pinctrl_configure_pins+0x30e>
400d2f89:	0020c0        	memw
400d2f8c:	5a98      	l32i.n	a9, a10, 20
400d2f8e:	401400        	ssl	a4
400d2f91:	a18800        	sll	a8, a8
400d2f94:	0020c0        	memw
400d2f97:	3199      	s32i.n	a9, a1, 12
400d2f99:	748080        	extui	a8, a8, 0, 8
400d2f9c:	0020c0        	memw
400d2f9f:	0c4182        	s8i	a8, a1, 12
400d2fa2:	0020c0        	memw
400d2fa5:	3188      	l32i.n	a8, a1, 12
400d2fa7:	0020c0        	memw
400d2faa:	5a89      	s32i.n	a8, a10, 20
400d2fac:	001406        	j	400d3000 <pinctrl_configure_pins+0x320>
400d2faf:	00          	.byte 00
400d2fb0:	8abc      	beqz.n	a10, 400d2fec <pinctrl_configure_pins+0x30c>
400d2fb2:	f4e0a1        	l32r	a10, 400d0334 <_image_irom_vaddr+0x314> (3ff44000 <GPIO>)
400d2fb5:	c9cc      	bnez.n	a9, 400d2fc5 <pinctrl_configure_pins+0x2e5>
400d2fb7:	401400        	ssl	a4
400d2fba:	a18800        	sll	a8, a8
400d2fbd:	0020c0        	memw
400d2fc0:	3a89      	s32i.n	a8, a10, 12
400d2fc2:	000a06        	j	400d2fee <pinctrl_configure_pins+0x30e>
400d2fc5:	0020c0        	memw
400d2fc8:	6a98      	l32i.n	a9, a10, 24
400d2fca:	401400        	ssl	a4
400d2fcd:	a18800        	sll	a8, a8
400d2fd0:	0020c0        	memw
400d2fd3:	2199      	s32i.n	a9, a1, 8
400d2fd5:	748080        	extui	a8, a8, 0, 8
400d2fd8:	0020c0        	memw
400d2fdb:	084182        	s8i	a8, a1, 8
400d2fde:	0020c0        	memw
400d2fe1:	2188      	l32i.n	a8, a1, 8
400d2fe3:	0020c0        	memw
400d2fe6:	6a89      	s32i.n	a8, a10, 24
400d2fe8:	000506        	j	400d3000 <pinctrl_configure_pins+0x320>
400d2feb:	00          	.byte 00
400d2fec:	09dc      	bnez.n	a9, 400d3000 <pinctrl_configure_pins+0x320>
400d2fee:	180c      	movi.n	a8, 1
400d2ff0:	401400        	ssl	a4
400d2ff3:	a18800        	sll	a8, a8
400d2ff6:	0020c0        	memw
400d2ff9:	9b89      	s32i.n	a8, a11, 36
400d2ffb:	000986        	j	400d3025 <pinctrl_configure_pins+0x345>
400d2ffe:	00          	.byte 00
400d2fff:	00          	.byte 00
400d3000:	0020c0        	memw
400d3003:	cb88      	l32i.n	a8, a11, 48
400d3005:	0020c0        	memw
400d3008:	1189      	s32i.n	a8, a1, 4
400d300a:	180c      	movi.n	a8, 1
400d300c:	401400        	ssl	a4
400d300f:	a18800        	sll	a8, a8
400d3012:	748080        	extui	a8, a8, 0, 8
400d3015:	0020c0        	memw
400d3018:	044182        	s8i	a8, a1, 4
400d301b:	0020c0        	memw
400d301e:	1188      	l32i.n	a8, a1, 4
400d3020:	0020c0        	memw
400d3023:	cb89      	s32i.n	a8, a11, 48
400d3025:	0d0c      	movi.n	a13, 0
400d3027:	0dcd      	mov.n	a12, a13
400d3029:	00a1b2        	movi	a11, 0x100
400d302c:	04ad      	mov.n	a10, a4
400d302e:	f4bf81        	l32r	a8, 400d032c <_image_irom_vaddr+0x30c> (40009f0c <esp_rom_gpio_connect_out_signal>)
400d3031:	0008e0        	callx8	a8
400d3034:	001346        	j	400d3085 <pinctrl_configure_pins+0x3a5>
400d3037:	00          	.byte 00
400d3038:	49e397        	bbsi	a3, 9, 400d3085 <pinctrl_configure_pins+0x3a5>
400d303b:	f4baa1        	l32r	a10, 400d0324 <_image_irom_vaddr+0x304> (3ff44000 <GPIO>)
400d303e:	e9cc      	bnez.n	a9, 400d3050 <pinctrl_configure_pins+0x370>
400d3040:	180c      	movi.n	a8, 1
400d3042:	401400        	ssl	a4
400d3045:	a18800        	sll	a8, a8
400d3048:	0020c0        	memw
400d304b:	aa89      	s32i.n	a8, a10, 40
400d304d:	000906        	j	400d3075 <pinctrl_configure_pins+0x395>
400d3050:	0020c0        	memw
400d3053:	da88      	l32i.n	a8, a10, 52
400d3055:	0020c0        	memw
400d3058:	0189      	s32i.n	a8, a1, 0
400d305a:	180c      	movi.n	a8, 1
400d305c:	401400        	ssl	a4
400d305f:	a18800        	sll	a8, a8
400d3062:	748080        	extui	a8, a8, 0, 8
400d3065:	0020c0        	memw
400d3068:	004182        	s8i	a8, a1, 0
400d306b:	0020c0        	memw
400d306e:	0188      	l32i.n	a8, a1, 0
400d3070:	0020c0        	memw
400d3073:	da89      	s32i.n	a8, a10, 52
400d3075:	f4ac81        	l32r	a8, 400d0328 <_image_irom_vaddr+0x308> (ffd114c <CONFIG_SYS_CLOCK_HW_CYCLES_PER_SEC+0x1aef54c>)
400d3078:	00a192        	movi	a9, 0x100
400d307b:	848a      	add.n	a8, a4, a8
400d307d:	1188e0        	slli	a8, a8, 2
400d3080:	0020c0        	memw
400d3083:	0899      	s32i.n	a9, a8, 0
400d3085:	180357        	bnone	a3, a5, 400d30a1 <pinctrl_configure_pins+0x3c1>
400d3088:	f4a581        	l32r	a8, 400d031c <_image_irom_vaddr+0x2fc> (3f40004c <GPIO_PIN_MUX_REG>)
400d308b:	00a2a2        	movi	a10, 0x200
400d308e:	a08480        	addx4	a8, a4, a8
400d3091:	0898      	l32i.n	a9, a8, 0
400d3093:	0020c0        	memw
400d3096:	0988      	l32i.n	a8, a9, 0
400d3098:	2088a0        	or	a8, a8, a10
400d309b:	000606        	j	400d30b7 <pinctrl_configure_pins+0x3d7>
400d309e:	00          	.byte 00
400d309f:	00          	.byte 00
400d30a0:	00          	.byte 00
400d30a1:	17e3a7        	bbsi	a3, 10, 400d30bc <pinctrl_configure_pins+0x3dc>
400d30a4:	f49e81        	l32r	a8, 400d031c <_image_irom_vaddr+0x2fc> (3f40004c <GPIO_PIN_MUX_REG>)
400d30a7:	ffada2        	movi	a10, 0xfffffdff
400d30aa:	a08480        	addx4	a8, a4, a8
400d30ad:	0898      	l32i.n	a9, a8, 0
400d30af:	0020c0        	memw
400d30b2:	0988      	l32i.n	a8, a9, 0
400d30b4:	1088a0        	and	a8, a8, a10
400d30b7:	0020c0        	memw
400d30ba:	0989      	s32i.n	a8, a9, 0
400d30bc:	026367        	bbci	a3, 6, 400d30c2 <pinctrl_configure_pins+0x3e2>
400d30bf:	ff9dc6        	j	400d2f3a <pinctrl_configure_pins+0x25a>
400d30c2:	0b0357        	bnone	a3, a5, 400d30d1 <pinctrl_configure_pins+0x3f1>
400d30c5:	0c0c      	movi.n	a12, 0
400d30c7:	06bd      	mov.n	a11, a6
400d30c9:	04ad      	mov.n	a10, a4
400d30cb:	f49c81        	l32r	a8, 400d033c <_image_irom_vaddr+0x31c> (40009edc <esp_rom_gpio_connect_in_signal>)
400d30ce:	0008e0        	callx8	a8
400d30d1:	228b      	addi.n	a2, a2, 8
400d30d3:	51e8      	l32i.n	a14, a1, 20
400d30d5:	021e27        	beq	a14, a2, 400d30db <pinctrl_configure_pins+0x3fb>
400d30d8:	ff0586        	j	400d2cf2 <pinctrl_configure_pins+0x12>
400d30db:	020c      	movi.n	a2, 0
400d30dd:	0001c6        	j	400d30e8 <pinctrl_configure_pins+0x408>
400d30e0:	a26c      	movi.n	a2, -22
400d30e2:	000086        	j	400d30e8 <pinctrl_configure_pins+0x408>
400d30e5:	7aaf22        	movi	a2, -134
400d30e8:	f01d      	retw.n
	...

400d30ec <uart_esp32_config_get>:
400d30ec:	006136        	entry	a1, 48
400d30ef:	4228      	l32i.n	a2, a2, 16
400d30f1:	03bd      	mov.n	a11, a3
400d30f3:	228b      	addi.n	a2, a2, 8
400d30f5:	02ad      	mov.n	a10, a2
400d30f7:	fd68e5        	call8	400d0784 <uart_hal_get_baudrate>
400d30fa:	b1cb      	addi.n	a11, a1, 12
400d30fc:	20a220        	or	a10, a2, a2
400d30ff:	003c25        	call8	400d34c0 <uart_hal_get_parity>
400d3102:	3188      	l32i.n	a8, a1, 12
400d3104:	0c2826        	beqi	a8, 2, 400d3114 <uart_esp32_config_get+0x28>
400d3107:	073826        	beqi	a8, 3, 400d3112 <uart_esp32_config_get+0x26>
400d310a:	688c      	beqz.n	a8, 400d3114 <uart_esp32_config_get+0x28>
400d310c:	7aaf22        	movi	a2, -134
400d310f:	001c46        	j	400d3184 <uart_esp32_config_get+0x98>
400d3112:	180c      	movi.n	a8, 1
400d3114:	044382        	s8i	a8, a3, 4
400d3117:	08c1b2        	addi	a11, a1, 8
400d311a:	20a220        	or	a10, a2, a2
400d311d:	0030e5        	call8	400d342c <uart_hal_get_stop_bits>
400d3120:	022182        	l32i	a8, a1, 8
400d3123:	052826        	beqi	a8, 2, 400d312c <uart_esp32_config_get+0x40>
400d3126:	023826        	beqi	a8, 3, 400d312c <uart_esp32_config_get+0x40>
400d3129:	df1866        	bnei	a8, 1, 400d310c <uart_esp32_config_get+0x20>
400d312c:	054382        	s8i	a8, a3, 5
400d312f:	04c1b2        	addi	a11, a1, 4
400d3132:	20a220        	or	a10, a2, a2
400d3135:	0033e5        	call8	400d3474 <uart_hal_get_data_bit_num>
400d3138:	012182        	l32i	a8, a1, 4
400d313b:	152826        	beqi	a8, 2, 400d3154 <uart_esp32_config_get+0x68>
400d313e:	0f38f6        	bgeui	a8, 3, 400d3151 <uart_esp32_config_get+0x65>
400d3141:	190c      	movi.n	a9, 1
400d3143:	0a0c      	movi.n	a10, 0
400d3145:	839a80        	moveqz	a9, a10, a8
400d3148:	748090        	extui	a8, a9, 0, 8
400d314b:	000146        	j	400d3154 <uart_esp32_config_get+0x68>
400d314e:	00          	.byte 00
400d314f:	00          	.byte 00
400d3150:	00          	.byte 00
400d3151:	b73866        	bnei	a8, 3, 400d310c <uart_esp32_config_get+0x20>
400d3154:	064382        	s8i	a8, a3, 6
400d3157:	01bd      	mov.n	a11, a1
400d3159:	02ad      	mov.n	a10, a2
400d315b:	003865        	call8	400d34e0 <uart_hal_get_hw_flow_ctrl>
400d315e:	0188      	l32i.n	a8, a1, 0
400d3160:	005816        	beqz	a8, 400d3169 <uart_esp32_config_get+0x7d>
400d3163:	a53866        	bnei	a8, 3, 400d310c <uart_esp32_config_get+0x20>
400d3166:	01a082        	movi	a8, 1
400d3169:	074382        	s8i	a8, a3, 7
400d316c:	20a220        	or	a10, a2, a2
400d316f:	003b65        	call8	400d3524 <uart_hal_is_mode_rs485_half_duplex>
400d3172:	006a56        	bnez	a10, 400d317c <uart_esp32_config_get+0x90>
400d3175:	00a022        	movi	a2, 0
400d3178:	000206        	j	400d3184 <uart_esp32_config_get+0x98>
400d317b:	00          	.byte 00
400d317c:	320c      	movi.n	a2, 3
400d317e:	074322        	s8i	a2, a3, 7
400d3181:	fffc06        	j	400d3175 <uart_esp32_config_get+0x89>
400d3184:	f01d      	retw.n
	...

400d3188 <uart_esp32_poll_out>:
400d3188:	008136        	entry	a1, 64
400d318b:	0422a2        	l32i	a10, a2, 16
400d318e:	104132        	s8i	a3, a1, 16
400d3191:	022a92        	l32i	a9, a10, 8
400d3194:	0020c0        	memw
400d3197:	072982        	l32i	a8, a9, 28
400d319a:	0020c0        	memw
400d319d:	006182        	s32i	a8, a1, 0
400d31a0:	0020c0        	memw
400d31a3:	020182        	l8ui	a8, a1, 2
400d31a6:	748080        	extui	a8, a8, 0, 8
400d31a9:	e7e826        	beqi	a8, 128, 400d3194 <uart_esp32_poll_out+0xc>
400d31ac:	04c1d2        	addi	a13, a1, 4
400d31af:	1c0c      	movi.n	a12, 1
400d31b1:	10c1b2        	addi	a11, a1, 16
400d31b4:	aa8b      	addi.n	a10, a10, 8
400d31b6:	fd8f25        	call8	400d0aa8 <uart_hal_write_txfifo>
400d31b9:	f01d      	retw.n
	...

400d31bc <uart_esp32_poll_in>:
400d31bc:	006136        	entry	a1, 48
400d31bf:	42a8      	l32i.n	a10, a2, 16
400d31c1:	120c      	movi.n	a2, 1
400d31c3:	2a88      	l32i.n	a8, a10, 8
400d31c5:	2129      	s32i.n	a2, a1, 8
400d31c7:	0020c0        	memw
400d31ca:	7828      	l32i.n	a2, a8, 28
400d31cc:	03bd      	mov.n	a11, a3
400d31ce:	0020c0        	memw
400d31d1:	0129      	s32i.n	a2, a1, 0
400d31d3:	0020c0        	memw
400d31d6:	000122        	l8ui	a2, a1, 0
400d31d9:	0020c0        	memw
400d31dc:	182882        	l32i	a8, a8, 96
400d31df:	742020        	extui	a2, a2, 0, 8
400d31e2:	0020c0        	memw
400d31e5:	1189      	s32i.n	a8, a1, 4
400d31e7:	0020c0        	memw
400d31ea:	1188      	l32i.n	a8, a1, 4
400d31ec:	0020c0        	memw
400d31ef:	1198      	l32i.n	a9, a1, 4
400d31f1:	a48d80        	extui	a8, a8, 13, 11
400d31f4:	a49290        	extui	a9, a9, 2, 11
400d31f7:	12b987        	bgeu	a9, a8, 400d320d <uart_esp32_poll_in+0x51>
400d31fa:	0020c0        	memw
400d31fd:	1188      	l32i.n	a8, a1, 4
400d31ff:	0020c0        	memw
400d3202:	1128      	l32i.n	a2, a1, 4
400d3204:	a48d80        	extui	a8, a8, 13, 11
400d3207:	a42220        	extui	a2, a2, 2, 11
400d320a:	0009c6        	j	400d3235 <uart_esp32_poll_in+0x79>
400d320d:	0020c0        	memw
400d3210:	1198      	l32i.n	a9, a1, 4
400d3212:	0020c0        	memw
400d3215:	1188      	l32i.n	a8, a1, 4
400d3217:	a49d90        	extui	a9, a9, 13, 11
400d321a:	a48280        	extui	a8, a8, 2, 11
400d321d:	1bb987        	bgeu	a9, a8, 400d323c <uart_esp32_poll_in+0x80>
400d3220:	0020c0        	memw
400d3223:	1188      	l32i.n	a8, a1, 4
400d3225:	0020c0        	memw
400d3228:	1128      	l32i.n	a2, a1, 4
400d322a:	a48d80        	extui	a8, a8, 13, 11
400d322d:	80a092        	movi	a9, 128
400d3230:	a42220        	extui	a2, a2, 2, 11
400d3233:	889a      	add.n	a8, a8, a9
400d3235:	c08820        	sub	a8, a8, a2
400d3238:	000206        	j	400d3244 <uart_esp32_poll_in+0x88>
400d323b:	00          	.byte 00
400d323c:	82cc      	bnez.n	a2, 400d3248 <uart_esp32_poll_in+0x8c>
400d323e:	f27c      	movi.n	a2, -1
400d3240:	000406        	j	400d3254 <uart_esp32_poll_in+0x98>
400d3243:	00          	.byte 00
400d3244:	f27c      	movi.n	a2, -1
400d3246:	a88c      	beqz.n	a8, 400d3254 <uart_esp32_poll_in+0x98>
400d3248:	08c1c2        	addi	a12, a1, 8
400d324b:	08caa2        	addi	a10, a10, 8
400d324e:	fd8b65        	call8	400d0b04 <uart_hal_read_rxfifo>
400d3251:	00a022        	movi	a2, 0
400d3254:	f01d      	retw.n
	...

400d3258 <uart_esp32_configure>:
400d3258:	006136        	entry	a1, 48
400d325b:	012252        	l32i	a5, a2, 4
400d325e:	01cd      	mov.n	a12, a1
400d3260:	15a8      	l32i.n	a10, a5, 4
400d3262:	00a0b2        	movi	a11, 0
400d3265:	4248      	l32i.n	a4, a2, 16
400d3267:	0056e5        	call8	400d37d4 <pinctrl_lookup_state>
400d326a:	0a2d      	mov.n	a2, a10
400d326c:	0c8a96        	bltz	a10, 400d3338 <uart_esp32_configure+0xe0>
400d326f:	0128      	l32i.n	a2, a1, 0
400d3271:	0c0c      	movi.n	a12, 0
400d3273:	0402b2        	l8ui	a11, a2, 4
400d3276:	0022a2        	l32i	a10, a2, 0
400d3279:	ffa665        	call8	400d2ce0 <pinctrl_configure_pins>
400d327c:	0a2d      	mov.n	a2, a10
400d327e:	0b6a96        	bltz	a10, 400d3338 <uart_esp32_configure+0xe0>
400d3281:	05a8      	l32i.n	a10, a5, 0
400d3283:	aec0a5        	call8	40081e8c <z_device_is_ready>
400d3286:	d26c      	movi.n	a2, -19
400d3288:	0aca16        	beqz	a10, 400d3338 <uart_esp32_configure+0xe0>
400d328b:	05a8      	l32i.n	a10, a5, 0
400d328d:	25b8      	l32i.n	a11, a5, 8
400d328f:	2a28      	l32i.n	a2, a10, 8
400d3291:	448b      	addi.n	a4, a4, 8
400d3293:	0228      	l32i.n	a2, a2, 0
400d3295:	0002e0        	callx8	a2
400d3298:	0b0c      	movi.n	a11, 0
400d329a:	04ad      	mov.n	a10, a4
400d329c:	fd4725        	call8	400d0710 <uart_hal_set_sclk>
400d329f:	6b1c      	movi.n	a11, 22
400d32a1:	04ad      	mov.n	a10, a4
400d32a3:	002625        	call8	400d3504 <uart_hal_set_rxfifo_full_thr>
400d32a6:	1b0c      	movi.n	a11, 1
400d32a8:	04ad      	mov.n	a10, a4
400d32aa:	fd5865        	call8	400d0830 <uart_hal_set_txfifo_empty_thr>
400d32ad:	04ad      	mov.n	a10, a4
400d32af:	fd7a25        	call8	400d0a50 <uart_hal_rxfifo_rst>
400d32b2:	0403b2        	l8ui	a11, a3, 4
400d32b5:	0b1b26        	beqi	a11, 1, 400d32c4 <uart_esp32_configure+0x6c>
400d32b8:	0a2b26        	beqi	a11, 2, 400d32c6 <uart_esp32_configure+0x6e>
400d32bb:	7b8c      	beqz.n	a11, 400d32c6 <uart_esp32_configure+0x6e>
400d32bd:	7aaf22        	movi	a2, -134
400d32c0:	001d06        	j	400d3338 <uart_esp32_configure+0xe0>
400d32c3:	00          	.byte 00
400d32c4:	3b0c      	movi.n	a11, 3
400d32c6:	04ad      	mov.n	a10, a4
400d32c8:	201110        	or	a1, a1, a1
400d32cb:	001be5        	call8	400d3488 <uart_hal_set_parity>
400d32ce:	0503b2        	l8ui	a11, a3, 5
400d32d1:	052b26        	beqi	a11, 2, 400d32da <uart_esp32_configure+0x82>
400d32d4:	023b26        	beqi	a11, 3, 400d32da <uart_esp32_configure+0x82>
400d32d7:	e21b66        	bnei	a11, 1, 400d32bd <uart_esp32_configure+0x65>
400d32da:	04ad      	mov.n	a10, a4
400d32dc:	000f65        	call8	400d33d4 <uart_hal_set_stop_bits>
400d32df:	0603b2        	l8ui	a11, a3, 6
400d32e2:	122b26        	beqi	a11, 2, 400d32f8 <uart_esp32_configure+0xa0>
400d32e5:	073bf6        	bgeui	a11, 3, 400d32f0 <uart_esp32_configure+0x98>
400d32e8:	abcc      	bnez.n	a11, 400d32f6 <uart_esp32_configure+0x9e>
400d32ea:	000286        	j	400d32f8 <uart_esp32_configure+0xa0>
400d32ed:	00          	.byte 00
400d32ee:	00          	.byte 00
400d32ef:	00          	.byte 00
400d32f0:	043b26        	beqi	a11, 3, 400d32f8 <uart_esp32_configure+0xa0>
400d32f3:	fff186        	j	400d32bd <uart_esp32_configure+0x65>
400d32f6:	1b0c      	movi.n	a11, 1
400d32f8:	04ad      	mov.n	a10, a4
400d32fa:	0015a5        	call8	400d3454 <uart_hal_set_data_bit_num>
400d32fd:	0b0c      	movi.n	a11, 0
400d32ff:	04ad      	mov.n	a10, a4
400d3301:	fd54e5        	call8	400d0850 <uart_hal_set_mode>
400d3304:	0703b2        	l8ui	a11, a3, 7
400d3307:	091b26        	beqi	a11, 1, 400d3314 <uart_esp32_configure+0xbc>
400d330a:	123b26        	beqi	a11, 3, 400d3320 <uart_esp32_configure+0xc8>
400d330d:	0bcd      	mov.n	a12, a11
400d330f:	5b8c      	beqz.n	a11, 400d3318 <uart_esp32_configure+0xc0>
400d3311:	ffea06        	j	400d32bd <uart_esp32_configure+0x65>
400d3314:	ac0c      	movi.n	a12, 10
400d3316:	3b0c      	movi.n	a11, 3
400d3318:	04ad      	mov.n	a10, a4
400d331a:	fd4ae5        	call8	400d07c8 <uart_hal_set_hw_flow_ctrl>
400d331d:	0001c6        	j	400d3328 <uart_esp32_configure+0xd0>
400d3320:	01a0b2        	movi	a11, 1
400d3323:	04ad      	mov.n	a10, a4
400d3325:	fd52a5        	call8	400d0850 <uart_hal_set_mode>
400d3328:	03b8      	l32i.n	a11, a3, 0
400d332a:	04ad      	mov.n	a10, a4
400d332c:	fd4065        	call8	400d0734 <uart_hal_set_baudrate>
400d332f:	6b1c      	movi.n	a11, 22
400d3331:	04ad      	mov.n	a10, a4
400d3333:	fd6ba5        	call8	400d09ec <uart_hal_set_rx_timeout>
400d3336:	020c      	movi.n	a2, 0
400d3338:	f01d      	retw.n
	...

400d333c <uart_esp32_init>:
400d333c:	004136        	entry	a1, 32
400d333f:	0422b2        	l32i	a11, a2, 16
400d3342:	20a220        	or	a10, a2, a2
400d3345:	fff125        	call8	400d3258 <uart_esp32_configure>
400d3348:	00a022        	movi	a2, 0
400d334b:	432a20        	min	a2, a10, a2
400d334e:	f01d      	retw.n

400d3350 <_OffsetAbsSyms>:
400d3350:	004136        	entry	a1, 32
400d3353:	f01d      	retw.n
400d3355:	000000        	ill

400d3358 <chunk_size>:
400d3358:	004136        	entry	a1, 32
400d335b:	b02320        	addx8	a2, a3, a2
400d335e:	011222        	l16ui	a2, a2, 2
400d3361:	412120        	srli	a2, a2, 1
400d3364:	f01d      	retw.n
	...

400d3368 <set_chunk_used>:
400d3368:	004136        	entry	a1, 32
400d336b:	b02320        	addx8	a2, a3, a2
400d336e:	011292        	l16ui	a9, a2, 2
400d3371:	e87c      	movi.n	a8, -2
400d3373:	108980        	and	a8, a9, a8
400d3376:	348c      	beqz.n	a4, 400d337d <set_chunk_used+0x15>
400d3378:	180c      	movi.n	a8, 1
400d337a:	208980        	or	a8, a9, a8
400d337d:	015282        	s16i	a8, a2, 2
400d3380:	f01d      	retw.n
	...

400d3384 <free_list_remove_bidx>:
400d3384:	004136        	entry	a1, 32
400d3387:	b0a320        	addx8	a10, a3, a2
400d338a:	031a82        	l16ui	a8, a10, 6
400d338d:	944b      	addi.n	a9, a4, 4
400d338f:	199387        	bne	a3, a8, 400d33ac <free_list_remove_bidx+0x28>
400d3392:	e87c      	movi.n	a8, -2
400d3394:	401400        	ssl	a4
400d3397:	818880        	src	a8, a8, a8
400d339a:	3248      	l32i.n	a4, a2, 12
400d339c:	a09920        	addx4	a9, a9, a2
400d339f:	104480        	and	a4, a4, a8
400d33a2:	3249      	s32i.n	a4, a2, 12
400d33a4:	020c      	movi.n	a2, 0
400d33a6:	0929      	s32i.n	a2, a9, 0
400d33a8:	000506        	j	400d33c0 <free_list_remove_bidx+0x3c>
400d33ab:	00          	.byte 00
400d33ac:	021a42        	l16ui	a4, a10, 4
400d33af:	a09920        	addx4	a9, a9, a2
400d33b2:	0989      	s32i.n	a8, a9, 0
400d33b4:	b03420        	addx8	a3, a4, a2
400d33b7:	035382        	s16i	a8, a3, 6
400d33ba:	b08820        	addx8	a8, a8, a2
400d33bd:	025842        	s16i	a4, a8, 4
400d33c0:	f01d      	retw.n
	...

400d33c4 <_ConfigAbsSyms>:
400d33c4:	004136        	entry	a1, 32
400d33c7:	f01d      	retw.n
400d33c9:	000000        	ill

400d33cc <sys_trace_idle>:
400d33cc:	004136        	entry	a1, 32
400d33cf:	f01d      	retw.n
400d33d1:	000000        	ill

400d33d4 <uart_hal_set_stop_bits>:
400d33d4:	004136        	entry	a1, 32
400d33d7:	0288      	l32i.n	a8, a2, 0
400d33d9:	203366        	bnei	a3, 3, 400d33fd <uart_hal_set_stop_bits+0x29>
400d33dc:	0020c0        	memw
400d33df:	112832        	l32i	a3, a8, 68
400d33e2:	490c      	movi.n	a9, 4
400d33e4:	203390        	or	a3, a3, a9
400d33e7:	0020c0        	memw
400d33ea:	116832        	s32i	a3, a8, 68
400d33ed:	0020c0        	memw
400d33f0:	8838      	l32i.n	a3, a8, 32
400d33f2:	cfaf92        	movi	a9, -49
400d33f5:	103390        	and	a3, a3, a9
400d33f8:	091c      	movi.n	a9, 16
400d33fa:	000846        	j	400d341f <uart_hal_set_stop_bits+0x4b>
400d33fd:	0020c0        	memw
400d3400:	112892        	l32i	a9, a8, 68
400d3403:	ba7c      	movi.n	a10, -5
400d3405:	1099a0        	and	a9, a9, a10
400d3408:	0020c0        	memw
400d340b:	116892        	s32i	a9, a8, 68
400d340e:	0020c0        	memw
400d3411:	8898      	l32i.n	a9, a8, 32
400d3413:	143030        	extui	a3, a3, 0, 2
400d3416:	cfafa2        	movi	a10, -49
400d3419:	1133c0        	slli	a3, a3, 4
400d341c:	1099a0        	and	a9, a9, a10
400d341f:	203930        	or	a3, a9, a3
400d3422:	0020c0        	memw
400d3425:	8839      	s32i.n	a3, a8, 32
400d3427:	f01d      	retw.n
400d3429:	000000        	ill

400d342c <uart_hal_get_stop_bits>:
400d342c:	004136        	entry	a1, 32
400d342f:	0298      	l32i.n	a9, a2, 0
400d3431:	0020c0        	memw
400d3434:	112982        	l32i	a8, a9, 68
400d3437:	0d6827        	bbci	a8, 2, 400d3448 <uart_hal_get_stop_bits+0x1c>
400d343a:	0020c0        	memw
400d343d:	89a8      	l32i.n	a10, a9, 32
400d343f:	03a082        	movi	a8, 3
400d3442:	14a4a0        	extui	a10, a10, 4, 2
400d3445:	071a26        	beqi	a10, 1, 400d3450 <uart_hal_get_stop_bits+0x24>
400d3448:	0020c0        	memw
400d344b:	8988      	l32i.n	a8, a9, 32
400d344d:	148480        	extui	a8, a8, 4, 2
400d3450:	0389      	s32i.n	a8, a3, 0
400d3452:	f01d      	retw.n

400d3454 <uart_hal_set_data_bit_num>:
400d3454:	004136        	entry	a1, 32
400d3457:	0298      	l32i.n	a9, a2, 0
400d3459:	143030        	extui	a3, a3, 0, 2
400d345c:	0020c0        	memw
400d345f:	8988      	l32i.n	a8, a9, 32
400d3461:	3a7c      	movi.n	a10, -13
400d3463:	1133e0        	slli	a3, a3, 2
400d3466:	1088a0        	and	a8, a8, a10
400d3469:	208830        	or	a8, a8, a3
400d346c:	0020c0        	memw
400d346f:	8989      	s32i.n	a8, a9, 32
400d3471:	f01d      	retw.n
	...

400d3474 <uart_hal_get_data_bit_num>:
400d3474:	004136        	entry	a1, 32
400d3477:	0288      	l32i.n	a8, a2, 0
400d3479:	0020c0        	memw
400d347c:	8888      	l32i.n	a8, a8, 32
400d347e:	148280        	extui	a8, a8, 2, 2
400d3481:	0389      	s32i.n	a8, a3, 0
400d3483:	f01d      	retw.n
400d3485:	000000        	ill

400d3488 <uart_hal_set_parity>:
400d3488:	004136        	entry	a1, 32
400d348b:	0298      	l32i.n	a9, a2, 0
400d348d:	339c      	beqz.n	a3, 400d34a4 <uart_hal_set_parity+0x1c>
400d348f:	0020c0        	memw
400d3492:	8988      	l32i.n	a8, a9, 32
400d3494:	eb7c      	movi.n	a11, -2
400d3496:	04a030        	extui	a10, a3, 0, 1
400d3499:	1088b0        	and	a8, a8, a11
400d349c:	2088a0        	or	a8, a8, a10
400d349f:	0020c0        	memw
400d34a2:	8989      	s32i.n	a8, a9, 32
400d34a4:	0020c0        	memw
400d34a7:	8988      	l32i.n	a8, a9, 32
400d34a9:	043130        	extui	a3, a3, 1, 1
400d34ac:	da7c      	movi.n	a10, -3
400d34ae:	333a      	add.n	a3, a3, a3
400d34b0:	1088a0        	and	a8, a8, a10
400d34b3:	203830        	or	a3, a8, a3
400d34b6:	0020c0        	memw
400d34b9:	8939      	s32i.n	a3, a9, 32
400d34bb:	f01d      	retw.n
400d34bd:	000000        	ill

400d34c0 <uart_hal_get_parity>:
400d34c0:	004136        	entry	a1, 32
400d34c3:	0298      	l32i.n	a9, a2, 0
400d34c5:	080c      	movi.n	a8, 0
400d34c7:	0020c0        	memw
400d34ca:	89a8      	l32i.n	a10, a9, 32
400d34cc:	0c6a17        	bbci	a10, 1, 400d34dc <uart_hal_get_parity+0x1c>
400d34cf:	0020c0        	memw
400d34d2:	8988      	l32i.n	a8, a9, 32
400d34d4:	290c      	movi.n	a9, 2
400d34d6:	048080        	extui	a8, a8, 0, 1
400d34d9:	208890        	or	a8, a8, a9
400d34dc:	0389      	s32i.n	a8, a3, 0
400d34de:	f01d      	retw.n

400d34e0 <uart_hal_get_hw_flow_ctrl>:
400d34e0:	004136        	entry	a1, 32
400d34e3:	0298      	l32i.n	a9, a2, 0
400d34e5:	080c      	movi.n	a8, 0
400d34e7:	0389      	s32i.n	a8, a3, 0
400d34e9:	0020c0        	memw
400d34ec:	9988      	l32i.n	a8, a9, 36
400d34ee:	058780        	extui	a8, a8, 23, 1
400d34f1:	0389      	s32i.n	a8, a3, 0
400d34f3:	0020c0        	memw
400d34f6:	8998      	l32i.n	a9, a9, 32
400d34f8:	0669f7        	bbci	a9, 15, 400d3502 <uart_hal_get_hw_flow_ctrl+0x22>
400d34fb:	290c      	movi.n	a9, 2
400d34fd:	208890        	or	a8, a8, a9
400d3500:	0389      	s32i.n	a8, a3, 0
400d3502:	f01d      	retw.n

400d3504 <uart_hal_set_rxfifo_full_thr>:
400d3504:	004136        	entry	a1, 32
400d3507:	0298      	l32i.n	a9, a2, 0
400d3509:	80afa2        	movi	a10, -128
400d350c:	0020c0        	memw
400d350f:	9988      	l32i.n	a8, a9, 36
400d3511:	643030        	extui	a3, a3, 0, 7
400d3514:	1088a0        	and	a8, a8, a10
400d3517:	208830        	or	a8, a8, a3
400d351a:	0020c0        	memw
400d351d:	9989      	s32i.n	a8, a9, 36
400d351f:	f01d      	retw.n
400d3521:	000000        	ill

400d3524 <uart_hal_is_mode_rs485_half_duplex>:
400d3524:	004136        	entry	a1, 32
400d3527:	0288      	l32i.n	a8, a2, 0
400d3529:	020c      	movi.n	a2, 0
400d352b:	0020c0        	memw
400d352e:	112892        	l32i	a9, a8, 68
400d3531:	08e947        	bbsi	a9, 4, 400d353d <uart_hal_is_mode_rs485_half_duplex+0x19>
400d3534:	0020c0        	memw
400d3537:	112822        	l32i	a2, a8, 68
400d353a:	042020        	extui	a2, a2, 0, 1
400d353d:	f01d      	retw.n
	...

400d3540 <uart_hal_get_symb_len>:
400d3540:	004136        	entry	a1, 32
400d3543:	0298      	l32i.n	a9, a2, 0
400d3545:	0020c0        	memw
400d3548:	89a8      	l32i.n	a10, a9, 32
400d354a:	0020c0        	memw
400d354d:	112922        	l32i	a2, a9, 68
400d3550:	14a2a0        	extui	a10, a10, 2, 2
400d3553:	aa6b      	addi.n	a10, a10, 6
400d3555:	2c6227        	bbci	a2, 2, 400d3585 <uart_hal_get_symb_len+0x45>
400d3558:	0020c0        	memw
400d355b:	8928      	l32i.n	a2, a9, 32
400d355d:	74c0a0        	extui	a12, a10, 0, 8
400d3560:	142420        	extui	a2, a2, 4, 2
400d3563:	1e1266        	bnei	a2, 1, 400d3585 <uart_hal_get_symb_len+0x45>
400d3566:	0020c0        	memw
400d3569:	89b8      	l32i.n	a11, a9, 32
400d356b:	220c      	movi.n	a2, 2
400d356d:	04b1b0        	extui	a11, a11, 1, 1
400d3570:	0b8d      	mov.n	a8, a11
400d3572:	02ad      	mov.n	a10, a2
400d3574:	6bbc      	beqz.n	a11, 400d35ae <uart_hal_get_symb_len+0x6e>
400d3576:	0020c0        	memw
400d3579:	8988      	l32i.n	a8, a9, 32
400d357b:	048080        	extui	a8, a8, 0, 1
400d357e:	208820        	or	a8, a8, a2
400d3581:	000a46        	j	400d35ae <uart_hal_get_symb_len+0x6e>
400d3584:	00          	.byte 00
400d3585:	0020c0        	memw
400d3588:	8928      	l32i.n	a2, a9, 32
400d358a:	0020c0        	memw
400d358d:	89b8      	l32i.n	a11, a9, 32
400d358f:	142420        	extui	a2, a2, 4, 2
400d3592:	080c      	movi.n	a8, 0
400d3594:	0c6b17        	bbci	a11, 1, 400d35a4 <uart_hal_get_symb_len+0x64>
400d3597:	0020c0        	memw
400d359a:	8988      	l32i.n	a8, a9, 32
400d359c:	290c      	movi.n	a9, 2
400d359e:	048080        	extui	a8, a8, 0, 1
400d35a1:	208890        	or	a8, a8, a9
400d35a4:	74c0a0        	extui	a12, a10, 0, 8
400d35a7:	1a0c      	movi.n	a10, 1
400d35a9:	0122b6        	bltui	a2, 2, 400d35ae <uart_hal_get_symb_len+0x6e>
400d35ac:	2a0c      	movi.n	a10, 2
400d35ae:	090c      	movi.n	a9, 0
400d35b0:	120c      	movi.n	a2, 1
400d35b2:	832980        	moveqz	a2, a9, a8
400d35b5:	aaca      	add.n	a10, a10, a12
400d35b7:	2a2a      	add.n	a2, a10, a2
400d35b9:	f01d      	retw.n
	...

400d35bc <wdt_hal_write_protect_enable>:
400d35bc:	004136        	entry	a1, 32
400d35bf:	0298      	l32i.n	a9, a2, 0
400d35c1:	1288      	l32i.n	a8, a2, 4
400d35c3:	79cc      	bnez.n	a9, 400d35ce <wdt_hal_write_protect_enable+0x12>
400d35c5:	0020c0        	memw
400d35c8:	296892        	s32i	a9, a8, 164
400d35cb:	0001c6        	j	400d35d6 <wdt_hal_write_protect_enable+0x1a>
400d35ce:	020c      	movi.n	a2, 0
400d35d0:	0020c0        	memw
400d35d3:	196822        	s32i	a2, a8, 100
400d35d6:	f01d      	retw.n

400d35d8 <_stdout_hook_default>:
400d35d8:	004136        	entry	a1, 32
400d35db:	f27c      	movi.n	a2, -1
400d35dd:	f01d      	retw.n
	...

400d35e0 <strnlen>:
400d35e0:	004136        	entry	a1, 32
400d35e3:	080c      	movi.n	a8, 0
400d35e5:	000046        	j	400d35ea <strnlen+0xa>
400d35e8:	881b      	addi.n	a8, a8, 1
400d35ea:	928a      	add.n	a9, a2, a8
400d35ec:	000992        	l8ui	a9, a9, 0
400d35ef:	198c      	beqz.n	a9, 400d35f4 <strnlen+0x14>
400d35f1:	f33837        	bltu	a8, a3, 400d35e8 <strnlen+0x8>
400d35f4:	082d      	mov.n	a2, a8
400d35f6:	f01d      	retw.n

400d35f8 <z_xt_ints_on>:
400d35f8:	004136        	entry	a1, 32
400d35fb:	03e480        	rsr.intenable	a8
400d35fe:	202280        	or	a2, a2, a8
400d3601:	13e420        	wsr.intenable	a2
400d3604:	002010        	rsync
400d3607:	f01d      	retw.n
400d3609:	000000        	ill

400d360c <z_xt_ints_off>:
400d360c:	004136        	entry	a1, 32
400d360f:	03e490        	rsr.intenable	a9
400d3612:	f87c      	movi.n	a8, -1
400d3614:	308820        	xor	a8, a8, a2
400d3617:	108890        	and	a8, a8, a9
400d361a:	13e480        	wsr.intenable	a8
400d361d:	002010        	rsync
400d3620:	f01d      	retw.n
	...

400d3624 <clock_control_esp32_async_on>:
400d3624:	004136        	entry	a1, 32
400d3627:	7aaf22        	movi	a2, -134
400d362a:	f01d      	retw.n

400d362c <entropy_esp32_init>:
400d362c:	004136        	entry	a1, 32
400d362f:	020c      	movi.n	a2, 0
400d3631:	f01d      	retw.n
	...

400d3634 <gpio_esp32_port_get_raw>:
400d3634:	004136        	entry	a1, 32
400d3637:	1298      	l32i.n	a9, a2, 4
400d3639:	2988      	l32i.n	a8, a9, 8
400d363b:	3998      	l32i.n	a9, a9, 12
400d363d:	79cc      	bnez.n	a9, 400d3648 <gpio_esp32_port_get_raw+0x14>
400d363f:	0020c0        	memw
400d3642:	f888      	l32i.n	a8, a8, 60
400d3644:	000246        	j	400d3651 <gpio_esp32_port_get_raw+0x1d>
400d3647:	00          	.byte 00
400d3648:	0020c0        	memw
400d364b:	400882        	l8ui	a8, a8, 64
400d364e:	748080        	extui	a8, a8, 0, 8
400d3651:	0389      	s32i.n	a8, a3, 0
400d3653:	020c      	movi.n	a2, 0
400d3655:	f01d      	retw.n
	...

400d3658 <gpio_esp32_port_set_masked_raw>:
400d3658:	004136        	entry	a1, 32
400d365b:	1288      	l32i.n	a8, a2, 4
400d365d:	0063a0        	rsil	a10, 3
400d3660:	38b8      	l32i.n	a11, a8, 12
400d3662:	2898      	l32i.n	a9, a8, 8
400d3664:	4bdc      	bnez.n	a11, 400d367c <gpio_esp32_port_set_masked_raw+0x24>
400d3666:	0020c0        	memw
400d3669:	1988      	l32i.n	a8, a9, 4
400d366b:	304840        	xor	a4, a8, a4
400d366e:	104430        	and	a4, a4, a3
400d3671:	304480        	xor	a4, a4, a8
400d3674:	0020c0        	memw
400d3677:	1949      	s32i.n	a4, a9, 4
400d3679:	000686        	j	400d3697 <gpio_esp32_port_set_masked_raw+0x3f>
400d367c:	0020c0        	memw
400d367f:	100982        	l8ui	a8, a9, 16
400d3682:	748080        	extui	a8, a8, 0, 8
400d3685:	304840        	xor	a4, a8, a4
400d3688:	104430        	and	a4, a4, a3
400d368b:	308840        	xor	a8, a8, a4
400d368e:	748080        	extui	a8, a8, 0, 8
400d3691:	0020c0        	memw
400d3694:	104982        	s8i	a8, a9, 16
400d3697:	13e6a0        	wsr.ps	a10
400d369a:	002010        	rsync
400d369d:	020c      	movi.n	a2, 0
400d369f:	f01d      	retw.n
400d36a1:	000000        	ill

400d36a4 <gpio_esp32_port_set_bits_raw>:
400d36a4:	004136        	entry	a1, 32
400d36a7:	1298      	l32i.n	a9, a2, 4
400d36a9:	2988      	l32i.n	a8, a9, 8
400d36ab:	3998      	l32i.n	a9, a9, 12
400d36ad:	79cc      	bnez.n	a9, 400d36b8 <gpio_esp32_port_set_bits_raw+0x14>
400d36af:	0020c0        	memw
400d36b2:	2839      	s32i.n	a3, a8, 8
400d36b4:	000246        	j	400d36c1 <gpio_esp32_port_set_bits_raw+0x1d>
400d36b7:	00          	.byte 00
400d36b8:	743030        	extui	a3, a3, 0, 8
400d36bb:	0020c0        	memw
400d36be:	144832        	s8i	a3, a8, 20
400d36c1:	020c      	movi.n	a2, 0
400d36c3:	f01d      	retw.n
400d36c5:	000000        	ill

400d36c8 <gpio_esp32_port_clear_bits_raw>:
400d36c8:	004136        	entry	a1, 32
400d36cb:	1298      	l32i.n	a9, a2, 4
400d36cd:	2988      	l32i.n	a8, a9, 8
400d36cf:	3998      	l32i.n	a9, a9, 12
400d36d1:	79cc      	bnez.n	a9, 400d36dc <gpio_esp32_port_clear_bits_raw+0x14>
400d36d3:	0020c0        	memw
400d36d6:	3839      	s32i.n	a3, a8, 12
400d36d8:	000246        	j	400d36e5 <gpio_esp32_port_clear_bits_raw+0x1d>
400d36db:	00          	.byte 00
400d36dc:	743030        	extui	a3, a3, 0, 8
400d36df:	0020c0        	memw
400d36e2:	184832        	s8i	a3, a8, 24
400d36e5:	020c      	movi.n	a2, 0
400d36e7:	f01d      	retw.n
400d36e9:	000000        	ill

400d36ec <gpio_esp32_port_toggle_bits>:
400d36ec:	004136        	entry	a1, 32
400d36ef:	1288      	l32i.n	a8, a2, 4
400d36f1:	0063a0        	rsil	a10, 3
400d36f4:	3898      	l32i.n	a9, a8, 12
400d36f6:	2888      	l32i.n	a8, a8, 8
400d36f8:	09dc      	bnez.n	a9, 400d370c <gpio_esp32_port_toggle_bits+0x20>
400d36fa:	0020c0        	memw
400d36fd:	1898      	l32i.n	a9, a8, 4
400d36ff:	309930        	xor	a9, a9, a3
400d3702:	0020c0        	memw
400d3705:	1899      	s32i.n	a9, a8, 4
400d3707:	0004c6        	j	400d371e <gpio_esp32_port_toggle_bits+0x32>
400d370a:	00          	.byte 00
400d370b:	00          	.byte 00
400d370c:	0020c0        	memw
400d370f:	100892        	l8ui	a9, a8, 16
400d3712:	303390        	xor	a3, a3, a9
400d3715:	743030        	extui	a3, a3, 0, 8
400d3718:	0020c0        	memw
400d371b:	104832        	s8i	a3, a8, 16
400d371e:	13e6a0        	wsr.ps	a10
400d3721:	002010        	rsync
400d3724:	020c      	movi.n	a2, 0
400d3726:	f01d      	retw.n

400d3728 <gpio_esp32_manage_callback>:
400d3728:	004136        	entry	a1, 32
400d372b:	4288      	l32i.n	a8, a2, 16
400d372d:	744040        	extui	a4, a4, 0, 8
400d3730:	1898      	l32i.n	a9, a8, 4
400d3732:	a9bc      	beqz.n	a9, 400d3770 <gpio_esp32_manage_callback+0x48>
400d3734:	319937        	bne	a9, a3, 400d3769 <gpio_esp32_manage_callback+0x41>
400d3737:	0001c6        	j	400d3742 <gpio_esp32_manage_callback+0x1a>
400d373a:	00          	.byte 00
400d373b:	00          	.byte 00
400d373c:	299397        	bne	a3, a9, 400d3769 <gpio_esp32_manage_callback+0x41>
400d373f:	000186        	j	400d3749 <gpio_esp32_manage_callback+0x21>
400d3742:	0328      	l32i.n	a2, a3, 0
400d3744:	1829      	s32i.n	a2, a8, 4
400d3746:	0000c6        	j	400d374d <gpio_esp32_manage_callback+0x25>
400d3749:	0398      	l32i.n	a9, a3, 0
400d374b:	0299      	s32i.n	a9, a2, 0
400d374d:	2898      	l32i.n	a9, a8, 8
400d374f:	019397        	bne	a3, a9, 400d3754 <gpio_esp32_manage_callback+0x2c>
400d3752:	2829      	s32i.n	a2, a8, 8
400d3754:	020c      	movi.n	a2, 0
400d3756:	0329      	s32i.n	a2, a3, 0
400d3758:	1e1427        	beq	a4, a2, 400d377a <gpio_esp32_manage_callback+0x52>
400d375b:	1828      	l32i.n	a2, a8, 4
400d375d:	0329      	s32i.n	a2, a3, 0
400d375f:	2828      	l32i.n	a2, a8, 8
400d3761:	1839      	s32i.n	a3, a8, 4
400d3763:	32dc      	bnez.n	a2, 400d377a <gpio_esp32_manage_callback+0x52>
400d3765:	0003c6        	j	400d3778 <gpio_esp32_manage_callback+0x50>
400d3768:	00          	.byte 00
400d3769:	092d      	mov.n	a2, a9
400d376b:	0998      	l32i.n	a9, a9, 0
400d376d:	fcb956        	bnez	a9, 400d373c <gpio_esp32_manage_callback+0x14>
400d3770:	a26c      	movi.n	a2, -22
400d3772:	648c      	beqz.n	a4, 400d377c <gpio_esp32_manage_callback+0x54>
400d3774:	fff8c6        	j	400d375b <gpio_esp32_manage_callback+0x33>
400d3777:	00          	.byte 00
400d3778:	2839      	s32i.n	a3, a8, 8
400d377a:	020c      	movi.n	a2, 0
400d377c:	f01d      	retw.n
	...

400d3780 <gpio_esp32_get_pending_int>:
400d3780:	006136        	entry	a1, 48
400d3783:	1298      	l32i.n	a9, a2, 4
400d3785:	03f520        	rsr.misc1	a2
400d3788:	100282        	l8ui	a8, a2, 16
400d378b:	1928      	l32i.n	a2, a9, 4
400d378d:	3998      	l32i.n	a9, a9, 12
400d378f:	29dc      	bnez.n	a9, 400d37a5 <gpio_esp32_get_pending_int+0x25>
400d3791:	78cc      	bnez.n	a8, 400d379c <gpio_esp32_get_pending_int+0x1c>
400d3793:	0020c0        	memw
400d3796:	1a2222        	l32i	a2, a2, 104
400d3799:	000cc6        	j	400d37d0 <gpio_esp32_get_pending_int+0x50>
400d379c:	0020c0        	memw
400d379f:	182222        	l32i	a2, a2, 96
400d37a2:	000a86        	j	400d37d0 <gpio_esp32_get_pending_int+0x50>
400d37a5:	38dc      	bnez.n	a8, 400d37bc <gpio_esp32_get_pending_int+0x3c>
400d37a7:	0020c0        	memw
400d37aa:	1f2222        	l32i	a2, a2, 124
400d37ad:	0020c0        	memw
400d37b0:	1129      	s32i.n	a2, a1, 4
400d37b2:	0020c0        	memw
400d37b5:	040122        	l8ui	a2, a1, 4
400d37b8:	000446        	j	400d37cd <gpio_esp32_get_pending_int+0x4d>
400d37bb:	00          	.byte 00
400d37bc:	0020c0        	memw
400d37bf:	1d2222        	l32i	a2, a2, 116
400d37c2:	0020c0        	memw
400d37c5:	0129      	s32i.n	a2, a1, 0
400d37c7:	0020c0        	memw
400d37ca:	000122        	l8ui	a2, a1, 0
400d37cd:	742020        	extui	a2, a2, 0, 8
400d37d0:	f01d      	retw.n
	...

400d37d4 <pinctrl_lookup_state>:
400d37d4:	004136        	entry	a1, 32
400d37d7:	0288      	l32i.n	a8, a2, 0
400d37d9:	743030        	extui	a3, a3, 0, 8
400d37dc:	000206        	j	400d37e8 <pinctrl_lookup_state+0x14>
400d37df:	00          	.byte 00
400d37e0:	050892        	l8ui	a9, a8, 5
400d37e3:	131937        	beq	a9, a3, 400d37fa <pinctrl_lookup_state+0x26>
400d37e6:	888b      	addi.n	a8, a8, 8
400d37e8:	0489      	s32i.n	a8, a4, 0
400d37ea:	040292        	l8ui	a9, a2, 4
400d37ed:	02a8      	l32i.n	a10, a2, 0
400d37ef:	b099a0        	addx8	a9, a9, a10
400d37f2:	ea3897        	bltu	a8, a9, 400d37e0 <pinctrl_lookup_state+0xc>
400d37f5:	e27c      	movi.n	a2, -2
400d37f7:	000046        	j	400d37fc <pinctrl_lookup_state+0x28>
400d37fa:	020c      	movi.n	a2, 0
400d37fc:	f01d      	retw.n
	...

400d3800 <uart_esp32_err_check>:
400d3800:	004136        	entry	a1, 32
400d3803:	4228      	l32i.n	a2, a2, 16
400d3805:	c80c      	movi.n	a8, 12
400d3807:	2228      	l32i.n	a2, a2, 8
400d3809:	0020c0        	memw
400d380c:	2228      	l32i.n	a2, a2, 8
400d380e:	102280        	and	a2, a2, a8
400d3811:	f01d      	retw.n
	...
